(lp0
(lp1
(dp2
S'box'
p3
(lp4
F200.5
aF236.0
aF49.0
aF60.0
asS'name'
p5
S'pictureframe'
p6
sa(dp7
g3
(lp8
F260.0
aF198.0
aF180.0
aF84.0
asg5
S'heater'
p9
sa(dp10
g3
(lp11
F294.0
aF224.5
aF44.0
aF69.0
asg5
S'pottedplant'
p12
sa(dp13
g3
(lp14
F497.5
aF199.0
aF117.0
aF84.0
asg5
S'book'
p15
sa(dp16
g3
(lp17
F477.5
aF298.5
aF81.0
aF105.0
asg5
S'book'
p18
sa(dp19
g3
(lp20
F555.0
aF340.5
aF80.0
aF69.0
asg5
S'book'
p21
sa(dp22
g3
(lp23
F469.0
aF431.0
aF124.0
aF90.0
asg5
S'book'
p24
sa(dp25
g3
(lp26
F582.5
aF447.5
aF77.0
aF57.0
asg5
S'book'
p27
sa(dp28
g3
(lp29
F622.5
aF344.5
aF27.0
aF95.0
asg5
S'book'
p30
sa(dp31
g3
(lp32
F289.0
aF363.5
aF234.0
aF225.0
asg5
S'coffeetable'
p33
sa(dp34
g3
(lp35
F52.0
aF315.5
aF100.0
aF159.0
asg5
S'coffeetable'
p36
sa(dp37
g3
(lp38
F87.5
aF124.0
aF171.0
aF228.0
asg5
S'tvmonitor'
p39
sa(dp40
g3
(lp41
F517.0
aF236.0
aF244.0
aF468.0
asg5
S'bookcase'
p42
sa(dp43
g3
(lp44
F498.5
aF95.0
aF33.0
aF24.0
asg5
S'doll'
p45
sa(dp46
g3
(lp47
F290.0
aF246.0
aF28.0
aF26.0
asg5
S'vase'
p48
saa(lp49
(dp50
g3
(lp51
F269.5
aF235.0
aF45.0
aF60.0
asg5
S'pictureframe'
p52
sa(dp53
g3
(lp54
F329.5
aF201.0
aF177.0
aF88.0
asg5
S'heater'
p55
sa(dp56
g3
(lp57
F362.0
aF228.0
aF46.0
aF72.0
asg5
S'pottedplant'
p58
sa(dp59
g3
(lp60
F137.5
aF124.5
aF209.0
aF213.0
asg5
S'tvmonitor'
p61
sa(dp62
g3
(lp63
F552.5
aF307.5
aF93.0
aF107.0
asg5
S'book'
p64
sa(dp65
g3
(lp66
F576.5
aF205.0
aF125.0
aF92.0
asg5
S'book'
p67
sa(dp68
g3
(lp69
F534.5
aF438.5
aF115.0
aF75.0
asg5
S'book'
p70
sa(dp71
g3
(lp72
F615.0
aF358.5
aF44.0
aF57.0
asg5
S'book'
p73
sa(dp74
g3
(lp75
F550.5
aF237.5
aF173.0
aF471.0
asg5
S'bookcase'
p76
sa(dp77
g3
(lp78
F355.5
aF247.0
aF25.0
aF24.0
asg5
S'vase'
p79
sa(dp80
g3
(lp81
F364.0
aF362.5
aF238.0
aF227.0
asg5
S'coffeetable'
p82
sa(dp83
g3
(lp84
F86.5
aF335.0
aF171.0
aF240.0
asg5
S'coffeetable'
p85
sa(dp86
g3
(lp87
F580.0
aF100.0
aF34.0
aF26.0
asg5
S'doll'
p88
saa(lp89
(dp90
g3
(lp91
F41.5
aF83.5
aF75.0
aF141.0
asg5
S'pottedplant'
p92
sa(dp93
g3
(lp94
F143.5
aF79.0
aF101.0
aF84.0
asg5
S'tvmonitor'
p95
sa(dp96
g3
(lp97
F360.5
aF51.5
aF167.0
aF99.0
asg5
S'shelf'
p98
sa(dp99
g3
(lp100
F510.5
aF47.5
aF83.0
aF87.0
asg5
S'windowblind'
p101
sa(dp102
g3
(lp103
F47.5
aF201.0
aF73.0
aF98.0
asg5
S'coffeetable'
p104
sa(dp105
g3
(lp106
F577.0
aF207.5
aF122.0
aF405.0
asg5
S'door'
p107
saa(lp108
(dp109
g3
(lp110
F565.0
aF256.5
aF74.0
aF87.0
asg5
S'wastecontainer'
p111
sa(dp112
g3
(lp113
F65.5
aF157.0
aF37.0
aF84.0
asg5
S'nightstand'
p114
saa(lp115
(dp116
g3
(lp117
F571.5
aF90.5
aF123.0
aF177.0
asg5
S'pottedplant'
p118
sa(dp119
g3
(lp120
F596.0
aF175.0
aF80.0
aF60.0
asg5
S'pictureframe'
p121
sa(dp122
g3
(lp123
F110.5
aF313.5
aF199.0
aF325.0
asg5
S'sofa'
p124
sa(dp125
g3
(lp126
F567.0
aF379.0
aF144.0
aF192.0
asg5
S'coffeetable'
p127
sa(dp128
g3
(lp129
F46.5
aF223.0
aF87.0
aF156.0
asg5
S'pillow'
p130
sa(dp131
g3
(lp132
F577.0
aF224.0
aF118.0
aF94.0
asg5
S'coffeetable'
p133
sa(dp134
g3
(lp135
F46.5
aF131.0
aF87.0
aF104.0
asg5
S'chair'
p136
saa(lp137
(dp138
g3
(lp139
F528.0
aF175.0
aF68.0
aF128.0
asg5
S'chair'
p140
sa(dp141
g3
(lp142
F570.0
aF173.5
aF130.0
aF141.0
asg5
S'diningtable'
p143
sa(dp144
g3
(lp145
F602.5
aF203.5
aF75.0
aF123.0
asg5
S'chair'
p146
sa(dp147
g3
(lp148
F254.0
aF373.0
aF118.0
aF120.0
asg5
S'remote'
p149
sa(dp150
g3
(lp151
F222.5
aF289.0
aF385.0
aF384.0
asg5
S'chair'
p152
sa(dp153
g3
(lp154
F227.5
aF316.0
aF221.0
aF180.0
asg5
S'pillow'
p155
sa(dp156
g3
(lp157
F320.5
aF79.5
aF19.0
aF35.0
asg5
S'cup'
p158
sa(dp159
g3
(lp160
F491.0
aF101.0
aF276.0
aF198.0
asg5
S'cabinetry'
p161
sa(dp162
g3
(lp163
F391.0
aF355.0
aF490.0
aF252.0
asg5
S'sofa'
p164
sa(dp165
g3
(lp166
F335.5
aF78.5
aF15.0
aF23.0
asg5
S'cup'
p167
sa(dp168
g3
(lp169
F296.5
aF76.5
aF11.0
aF23.0
asg5
S'tap'
p170
sa(dp171
g3
(lp172
F615.5
aF121.0
aF25.0
aF18.0
asg5
S'cup'
p173
sa(dp174
g3
(lp175
F293.0
aF25.0
aF120.0
aF48.0
asg5
S'shelf'
p176
saa(lp177
(dp178
g3
(lp179
F150.5
aF197.0
aF293.0
aF370.0
asg5
S'pottedplant'
p180
sa(dp181
g3
(lp182
F489.5
aF246.0
aF101.0
aF72.0
asg5
S'pottedplant'
p183
sa(dp184
g3
(lp185
F233.5
aF276.5
aF37.0
aF39.0
asg5
S'vase'
p186
sa(dp187
g3
(lp188
F331.5
aF255.0
aF131.0
aF96.0
asg5
S'pictureframe'
p189
sa(dp190
g3
(lp191
F357.5
aF351.5
aF345.0
aF191.0
asg5
S'coffeetable'
p192
sa(dp193
g3
(lp194
F324.0
aF47.5
aF318.0
aF87.0
asg5
S'windowblind'
p195
sa(dp196
g3
(lp197
F489.0
aF279.5
aF30.0
aF39.0
asg5
S'vase'
p198
sa(dp199
g3
(lp200
F149.5
aF390.5
aF79.0
aF99.0
asg5
S'vase'
p201
saa(lp202
(dp203
g3
(lp204
F63.5
aF80.5
aF125.0
aF133.0
asg5
S'tvmonitor'
p205
sa(dp206
g3
(lp207
F555.0
aF224.5
aF158.0
aF447.0
asg5
S'pottedplant'
p208
sa(dp209
g3
(lp210
F398.5
aF73.0
aF77.0
aF84.0
asg5
S'tvmonitor'
p211
sa(dp212
g3
(lp213
F565.0
aF401.0
aF76.0
aF90.0
asg5
S'vase'
p214
saa(lp215
(dp216
g3
(lp217
F224.5
aF317.0
aF133.0
aF324.0
asg5
S'chair'
p218
sa(dp219
g3
(lp220
F331.0
aF317.0
aF344.0
aF324.0
asg5
S'diningtable'
p221
sa(dp222
g3
(lp223
F332.5
aF171.0
aF39.0
aF76.0
asg5
S'tincan'
p224
sa(dp225
g3
(lp226
F96.5
aF175.0
aF187.0
aF176.0
asg5
S'countertop'
p227
sa(dp228
g3
(lp229
F105.0
aF84.0
aF28.0
aF28.0
asg5
S'cup'
p230
sa(dp231
g3
(lp232
F52.0
aF80.5
aF98.0
aF43.0
asg5
S'sink'
p233
sa(dp234
g3
(lp235
F408.0
aF136.5
aF454.0
aF271.0
asg5
S'cabinetry'
p236
sa(dp237
g3
(lp238
F275.0
aF172.0
aF34.0
aF36.0
asg5
S'cup'
p239
sa(dp240
g3
(lp241
F302.0
aF160.5
aF28.0
aF33.0
asg5
S'cup'
p242
sa(dp243
g3
(lp244
F15.0
aF80.5
aF24.0
aF27.0
asg5
S'tap'
p245
sa(dp246
g3
(lp247
F248.5
aF324.0
aF171.0
aF288.0
asg5
S'chair'
p248
sa(dp249
g3
(lp250
F432.0
aF276.0
aF146.0
aF262.0
asg5
S'chair'
p251
sa(dp252
g3
(lp253
F248.5
aF264.0
aF113.0
aF248.0
asg5
S'chair'
p254
saa(lp255
(dp256
g3
(lp257
F176.0
aF53.5
aF36.0
aF23.0
asg5
S'person'
p258
sa(dp259
g3
(lp260
F68.0
aF139.0
aF132.0
aF152.0
asg5
S'bed'
p261
sa(dp262
g3
(lp263
F435.0
aF278.5
aF90.0
aF101.0
asg5
S'wastecontainer'
p264
sa(dp265
g3
(lp266
F516.0
aF90.5
aF44.0
aF45.0
asg5
S'tincan'
p267
sa(dp268
g3
(lp269
F549.5
aF227.0
aF177.0
aF246.0
asg5
S'countertop'
p270
sa(dp271
g3
(lp272
F588.0
aF92.0
aF34.0
aF36.0
asg5
S'tap'
p273
sa(dp274
g3
(lp275
F338.0
aF59.0
aF28.0
aF24.0
asg5
S'person'
p276
sa(dp277
g3
(lp278
F19.0
aF105.0
aF34.0
aF18.0
asg5
S'pillow'
p279
sa(dp280
g3
(lp281
F72.5
aF105.0
aF61.0
aF22.0
asg5
S'pillow'
p282
sa(dp283
g3
(lp284
F631.0
aF94.5
aF18.0
aF43.0
asg5
S'cup'
p285
sa(dp286
g3
(lp287
F566.0
aF111.0
aF112.0
aF18.0
asg5
S'sink'
p288
saa(lp289
(dp290
g3
(lp291
F78.5
aF130.0
aF155.0
aF234.0
asg5
S'door'
p292
sa(dp293
g3
(lp294
F327.5
aF206.0
aF149.0
aF254.0
asg5
S'chair'
p295
sa(dp296
g3
(lp297
F376.0
aF241.0
aF230.0
aF258.0
asg5
S'diningtable'
p298
sa(dp299
g3
(lp300
F356.5
aF116.0
aF295.0
aF224.0
asg5
S'cabinetry'
p301
sa(dp302
g3
(lp303
F417.5
aF118.0
aF49.0
aF72.0
asg5
S'bottle'
p304
sa(dp305
g3
(lp306
F341.0
aF131.5
aF50.0
aF35.0
asg5
S'cup'
p307
sa(dp308
g3
(lp309
F440.5
aF147.5
aF15.0
aF33.0
asg5
S'doll'
p310
saa(lp311
(dp312
g3
(lp313
F59.5
aF179.5
aF93.0
aF37.0
asg5
S'bowl'
p314
sa(dp315
g3
(lp316
F362.0
aF173.5
aF96.0
aF225.0
asg5
S'chair'
p317
sa(dp318
g3
(lp319
F95.5
aF209.5
aF189.0
aF169.0
asg5
S'diningtable'
p320
sa(dp321
g3
(lp322
F405.5
aF196.0
aF209.0
aF212.0
asg5
S'diningtable'
p323
sa(dp324
g3
(lp325
F95.0
aF317.0
aF188.0
aF324.0
asg5
S'chair'
p326
sa(dp327
g3
(lp328
F104.5
aF98.5
aF169.0
aF195.0
asg5
S'door'
p329
sa(dp330
g3
(lp331
F100.5
aF161.5
aF23.0
aF29.0
asg5
S'doll'
p332
sa(dp333
g3
(lp334
F354.0
aF96.0
aF234.0
aF184.0
asg5
S'cabinetry'
p335
saa(lp336
(dp337
g3
(lp338
F485.5
aF325.5
aF279.0
aF307.0
asg5
S'sofa'
p339
sa(dp340
g3
(lp341
F356.0
aF141.5
aF130.0
aF109.0
asg5
S'chair'
p342
sa(dp343
g3
(lp344
F551.5
aF263.5
aF167.0
aF105.0
asg5
S'backpack'
p345
sa(dp346
g3
(lp347
F382.5
aF155.5
aF53.0
aF53.0
asg5
S'backpack'
p348
sa(dp349
g3
(lp350
F632.0
aF121.0
aF14.0
aF58.0
asg5
S'pottedplant'
p351
saa(lp352
(dp353
g3
(lp354
F274.5
aF91.0
aF103.0
aF174.0
asg5
S'pottedplant'
p355
sa(dp356
g3
(lp357
F357.5
aF145.0
aF25.0
aF30.0
asg5
S'pottedplant'
p358
sa(dp359
g3
(lp360
F534.5
aF127.0
aF211.0
aF168.0
asg5
S'tvmonitor'
p361
sa(dp362
g3
(lp363
F320.5
aF322.5
aF633.0
aF277.0
asg5
S'sofa'
p364
sa(dp365
g3
(lp366
F387.5
aF320.0
aF73.0
aF42.0
asg5
S'remote'
p367
sa(dp368
g3
(lp369
F309.0
aF137.5
aF60.0
aF47.0
asg5
S'pictureframe'
p370
sa(dp371
g3
(lp372
F173.5
aF265.5
aF215.0
aF113.0
asg5
S'backpack'
p373
sa(dp374
g3
(lp375
F64.0
aF65.0
aF86.0
aF18.0
asg5
S'tvmonitor'
p376
sa(dp377
g3
(lp378
F264.0
aF184.0
aF28.0
aF28.0
asg5
S'vase'
p379
sa(dp380
g3
(lp381
F368.0
aF40.0
aF128.0
aF66.0
asg5
S'windowblind'
p382
sa(dp383
g3
(lp384
F329.0
aF180.0
aF94.0
aF66.0
asg5
S'coffeetable'
p385
sa(dp386
g3
(lp387
F498.5
aF239.5
aF225.0
aF129.0
asg5
S'coffeetable'
p388
saa(lp389
(dp390
g3
(lp391
F545.0
aF162.5
aF188.0
aF309.0
asg5
S'cabinetry'
p392
sa(dp393
g3
(lp394
F355.0
aF122.5
aF70.0
aF59.0
asg5
S'cup'
p395
sa(dp396
g3
(lp397
F249.5
aF297.5
aF497.0
aF363.0
asg5
S'countertop'
p398
sa(dp399
g3
(lp400
F269.0
aF134.0
aF94.0
aF42.0
asg5
S'bowl'
p401
sa(dp402
g3
(lp403
F230.5
aF116.5
aF75.0
aF43.0
asg5
S'bowl'
p404
sa(dp405
g3
(lp406
F138.5
aF99.0
aF71.0
aF70.0
asg5
S'tap'
p407
sa(dp408
g3
(lp409
F193.0
aF159.5
aF372.0
aF69.0
asg5
S'sink'
p410
saa(lp411
(dp412
g3
(lp413
F153.0
aF127.5
aF154.0
aF253.0
asg5
S'shelf'
p414
sa(dp415
g3
(lp416
F47.0
aF208.0
aF82.0
aF104.0
asg5
S'coffeetable'
p417
sa(dp418
g3
(lp419
F131.5
aF215.5
aF65.0
aF37.0
asg5
S'book'
p420
sa(dp421
g3
(lp422
F284.0
aF41.5
aF160.0
aF81.0
asg5
S'windowblind'
p423
sa(dp424
g3
(lp425
F543.0
aF100.5
aF70.0
aF197.0
asg5
S'door'
p426
sa(dp427
g3
(lp428
F414.0
aF110.0
aF82.0
aF216.0
asg5
S'door'
p429
sa(dp430
g3
(lp431
F618.5
aF43.5
aF37.0
aF81.0
asg5
S'windowblind'
p432
sa(dp433
g3
(lp434
F117.5
aF110.5
aF53.0
aF31.0
asg5
S'book'
p435
sa(dp436
g3
(lp437
F191.0
aF116.0
aF48.0
aF18.0
asg5
S'book'
p438
sa(dp439
g3
(lp440
F196.0
aF160.0
aF54.0
aF30.0
asg5
S'book'
p441
sa(dp442
g3
(lp443
F118.0
aF154.5
aF36.0
aF41.0
asg5
S'book'
p444
sa(dp445
g3
(lp446
F154.0
aF166.0
aF26.0
aF18.0
asg5
S'book'
p447
sa(dp448
g3
(lp449
F188.5
aF217.0
aF41.0
aF24.0
asg5
S'book'
p450
sa(dp451
g3
(lp452
F13.5
aF146.0
aF21.0
aF42.0
asg5
S'pottedplant'
p453
sa(dp454
g3
(lp455
F152.5
aF120.0
aF145.0
aF234.0
asg5
S'bookcase'
p456
saa(lp457
(dp458
g3
(lp459
F270.0
aF152.0
aF44.0
aF42.0
asg5
S'cup'
p460
sa(dp461
g3
(lp462
F509.5
aF152.5
aF95.0
aF153.0
asg5
S'chair'
p463
sa(dp464
g3
(lp465
F263.5
aF287.5
aF189.0
aF267.0
asg5
S'chair'
p466
sa(dp467
g3
(lp468
F328.0
aF280.0
aF344.0
aF282.0
asg5
S'diningtable'
p469
sa(dp470
g3
(lp471
F449.5
aF277.5
aF109.0
aF249.0
asg5
S'chair'
p472
sa(dp473
g3
(lp474
F396.5
aF143.0
aF31.0
aF54.0
asg5
S'tincan'
p475
sa(dp476
g3
(lp477
F365.0
aF146.0
aF22.0
aF62.0
asg5
S'tincan'
p478
sa(dp479
g3
(lp480
F546.5
aF184.0
aF177.0
aF160.0
asg5
S'diningtable'
p481
sa(dp482
g3
(lp483
F312.5
aF143.0
aF45.0
aF18.0
asg5
S'bowl'
p484
sa(dp485
g3
(lp486
F248.0
aF67.0
aF84.0
aF126.0
asg5
S'door'
p487
sa(dp488
g3
(lp489
F90.0
aF117.0
aF170.0
aF218.0
asg5
S'cabinetry'
p490
sa(dp491
g3
(lp492
F588.0
aF122.5
aF22.0
aF21.0
asg5
S'doll'
p493
saa(lp494
(dp495
g3
(lp496
F519.0
aF181.0
aF242.0
aF84.0
asg5
S'sink'
p497
sa(dp498
g3
(lp499
F258.5
aF435.5
aF153.0
aF91.0
asg5
S'wastecontainer'
p500
sa(dp501
g3
(lp502
F601.5
aF115.0
aF65.0
aF128.0
asg5
S'tap'
p503
sa(dp504
g3
(lp505
F477.0
aF289.0
aF316.0
aF384.0
asg5
S'countertop'
p506
sa(dp507
g3
(lp508
F126.0
aF49.5
aF36.0
aF31.0
asg5
S'person'
p509
saa(lp510
(dp511
g3
(lp512
F320.0
aF162.5
aF630.0
aF323.0
asg5
S'cabinetry'
p513
sa(dp514
g3
(lp515
F546.0
aF353.0
aF178.0
aF256.0
asg5
S'chair'
p516
sa(dp517
g3
(lp518
F564.5
aF273.0
aF141.0
aF130.0
asg5
S'diningtable'
p519
saa(lp520
(dp521
g3
(lp522
F194.5
aF211.0
aF383.0
aF420.0
asg5
S'cabinetry'
p523
sa(dp524
g3
(lp525
F410.5
aF130.0
aF69.0
aF258.0
asg5
S'door'
p526
sa(dp527
g3
(lp528
F558.5
aF115.0
aF157.0
aF226.0
asg5
S'cabinetry'
p529
saa(lp530
(dp531
g3
(lp532
F321.0
aF239.0
aF632.0
aF474.0
asg5
S'cabinetry'
p533
saa(lp534
(dp535
g3
(lp536
F560.5
aF62.5
aF97.0
aF91.0
asg5
S'pottedplant'
p537
sa(dp538
g3
(lp539
F531.5
aF151.0
aF109.0
aF152.0
asg5
S'chair'
p540
sa(dp541
g3
(lp542
F602.5
aF201.0
aF75.0
aF160.0
asg5
S'sofa'
p543
sa(dp544
g3
(lp545
F172.5
aF275.0
aF337.0
aF360.0
asg5
S'diningtable'
p546
sa(dp547
g3
(lp548
F111.0
aF310.0
aF190.0
aF322.0
asg5
S'chair'
p549
sa(dp550
g3
(lp551
F348.0
aF131.5
aF20.0
aF79.0
asg5
S'chair'
p552
sa(dp553
g3
(lp554
F589.5
aF120.5
aF27.0
aF27.0
asg5
S'pictureframe'
p555
sa(dp556
g3
(lp557
F597.0
aF37.0
aF72.0
aF66.0
asg5
S'windowblind'
p558
saa(lp559
(dp560
g3
(lp561
F151.0
aF238.0
aF296.0
aF474.0
asg5
S'door'
p562
saa(lp563
(dp564
g3
(lp565
F30.5
aF54.5
aF53.0
aF75.0
asg5
S'pottedplant'
p566
sa(dp567
g3
(lp568
F259.5
aF208.0
aF417.0
aF186.0
asg5
S'sofa'
p569
sa(dp570
g3
(lp571
F527.5
aF186.5
aF145.0
aF195.0
asg5
S'chair'
p572
sa(dp573
g3
(lp574
F58.0
aF193.0
aF110.0
aF252.0
asg5
S'chair'
p575
sa(dp576
g3
(lp577
F244.0
aF95.0
aF152.0
aF104.0
asg5
S'tvmonitor'
p578
sa(dp579
g3
(lp580
F179.0
aF134.5
aF98.0
aF59.0
asg5
S'pillow'
p581
sa(dp582
g3
(lp583
F278.5
aF137.0
aF101.0
aF44.0
asg5
S'pillow'
p584
sa(dp585
g3
(lp586
F373.0
aF140.0
aF86.0
aF30.0
asg5
S'pillow'
p587
sa(dp588
g3
(lp589
F445.0
aF76.0
aF108.0
aF150.0
asg5
S'shelf'
p590
sa(dp591
g3
(lp592
F521.5
aF43.0
aF73.0
aF84.0
asg5
S'windowblind'
p593
sa(dp594
g3
(lp595
F105.0
aF125.5
aF32.0
aF37.0
asg5
S'pottedplant'
p596
sa(dp597
g3
(lp598
F464.5
aF101.5
aF29.0
aF7.0
asg5
S'book'
p599
sa(dp600
g3
(lp601
F421.5
aF100.5
aF21.0
aF19.0
asg5
S'book'
p602
sa(dp603
g3
(lp604
F459.5
aF128.5
aF37.0
aF21.0
asg5
S'book'
p605
sa(dp606
g3
(lp607
F69.5
aF35.5
aF123.0
aF69.0
asg5
S'windowblind'
p608
sa(dp609
g3
(lp610
F328.5
aF127.0
aF19.0
aF24.0
asg5
S'pictureframe'
p611
sa(dp612
g3
(lp613
F59.5
aF122.0
aF25.0
aF30.0
asg5
S'pictureframe'
p614
saa(lp615
(dp616
g3
(lp617
F571.5
aF49.0
aF103.0
aF80.0
asg5
S'pottedplant'
p618
sa(dp619
g3
(lp620
F568.5
aF198.0
aF135.0
aF220.0
asg5
S'chair'
p621
sa(dp622
g3
(lp623
F132.0
aF353.0
aF262.0
aF252.0
asg5
S'diningtable'
p624
sa(dp625
g3
(lp626
F334.0
aF141.5
aF44.0
aF109.0
asg5
S'chair'
p627
sa(dp628
g3
(lp629
F446.5
aF68.5
aF43.0
aF21.0
asg5
S'tvmonitor'
p630
sa(dp631
g3
(lp632
F497.0
aF62.5
aF28.0
aF23.0
asg5
S'tvmonitor'
p633
sa(dp634
g3
(lp635
F607.0
aF43.5
aF62.0
aF81.0
asg5
S'windowblind'
p636
saa(lp637
(dp638
g3
(lp639
F542.5
aF172.5
aF181.0
aF309.0
asg5
S'cabinetry'
p640
sa(dp641
g3
(lp642
F281.5
aF108.0
aF41.0
aF96.0
asg5
S'cup'
p643
sa(dp644
g3
(lp645
F322.5
aF97.5
aF45.0
aF99.0
asg5
S'cup'
p646
sa(dp647
g3
(lp648
F249.0
aF295.5
aF482.0
aF361.0
asg5
S'countertop'
p649
sa(dp650
g3
(lp651
F151.0
aF103.5
aF70.0
aF69.0
asg5
S'tap'
p652
sa(dp653
g3
(lp654
F249.0
aF105.0
aF42.0
aF86.0
asg5
S'tincan'
p655
sa(dp656
g3
(lp657
F14.5
aF98.5
aF25.0
aF141.0
asg5
S'bottle'
p658
sa(dp659
g3
(lp660
F189.5
aF147.0
aF351.0
aF64.0
asg5
S'sink'
p661
saa(lp662
(dp663
g3
(lp664
F514.5
aF115.5
aF247.0
aF219.0
asg5
S'cabinetry'
p665
sa(dp666
g3
(lp667
F185.5
aF123.0
aF187.0
aF244.0
asg5
S'door'
p668
sa(dp669
g3
(lp670
F354.5
aF335.0
aF569.0
aF252.0
asg5
S'diningtable'
p671
saa(lp672
(dp673
g3
(lp674
F303.0
aF285.0
aF600.0
aF388.0
asg5
S'bed'
p675
sa(dp676
g3
(lp677
F267.5
aF139.5
aF37.0
aF27.0
asg5
S'pictureframe'
p678
sa(dp679
g3
(lp680
F251.0
aF163.0
aF102.0
aF44.0
asg5
S'nightstand'
p681
sa(dp682
g3
(lp683
F192.0
aF154.5
aF90.0
aF49.0
asg5
S'heater'
p684
sa(dp685
g3
(lp686
F78.5
aF39.5
aF147.0
aF75.0
asg5
S'windowblind'
p687
sa(dp688
g3
(lp689
F366.0
aF128.0
aF108.0
aF84.0
asg5
S'pillow'
p690
sa(dp691
g3
(lp692
F511.0
aF157.0
aF156.0
aF90.0
asg5
S'pillow'
p693
saa(lp694
(dp695
g3
(lp696
F246.0
aF215.5
aF170.0
aF91.0
asg5
S'pillow'
p697
sa(dp698
g3
(lp699
F321.0
aF196.5
aF86.0
aF125.0
asg5
S'pillow'
p700
sa(dp701
g3
(lp702
F387.5
aF173.0
aF77.0
aF126.0
asg5
S'pillow'
p703
sa(dp704
g3
(lp705
F135.5
aF81.5
aF185.0
aF141.0
asg5
S'cabinetry'
p706
sa(dp707
g3
(lp708
F129.5
aF292.5
aF255.0
aF375.0
asg5
S'chair'
p709
sa(dp710
g3
(lp711
F401.0
aF114.5
aF74.0
aF75.0
asg5
S'chair'
p712
sa(dp713
g3
(lp714
F101.5
aF130.0
aF103.0
aF126.0
asg5
S'chair'
p715
sa(dp716
g3
(lp717
F145.0
aF145.0
aF118.0
aF92.0
asg5
S'diningtable'
p718
sa(dp719
g3
(lp720
F290.5
aF306.0
aF463.0
aF330.0
asg5
S'sofa'
p721
sa(dp722
g3
(lp723
F191.5
aF236.5
aF77.0
aF45.0
asg5
S'remote'
p724
saa(lp725
(dp726
g3
(lp727
F146.0
aF139.5
aF276.0
aF263.0
asg5
S'cabinetry'
p728
sa(dp729
g3
(lp730
F118.0
aF327.0
aF230.0
aF282.0
asg5
S'diningtable'
p731
saa(lp732
(dp733
g3
(lp734
F390.0
aF125.0
aF492.0
aF240.0
asg5
S'cabinetry'
p735
sa(dp736
g3
(lp737
F547.5
aF331.0
aF181.0
aF288.0
asg5
S'chair'
p738
sa(dp739
g3
(lp740
F92.0
aF96.0
aF62.0
aF48.0
asg5
S'cup'
p741
sa(dp742
g3
(lp743
F108.0
aF289.0
aF212.0
aF372.0
asg5
S'countertop'
p744
sa(dp745
g3
(lp746
F31.0
aF112.5
aF54.0
aF43.0
asg5
S'bowl'
p747
saa(lp748
(dp749
g3
(lp750
F242.0
aF291.5
aF72.0
aF87.0
asg5
S'pictureframe'
p751
sa(dp752
g3
(lp753
F314.5
aF234.5
aF219.0
aF123.0
asg5
S'heater'
p754
sa(dp755
g3
(lp756
F363.0
aF280.5
aF66.0
aF99.0
asg5
S'pottedplant'
p757
sa(dp758
g3
(lp759
F103.5
aF151.5
aF203.0
aF283.0
asg5
S'tvmonitor'
p760
sa(dp761
g3
(lp762
F355.5
aF305.0
aF41.0
aF48.0
asg5
S'vase'
p763
sa(dp764
g3
(lp765
F384.0
aF390.5
aF358.0
aF171.0
asg5
S'coffeetable'
p766
saa(lp767
(dp768
g3
(lp769
F221.5
aF275.5
aF439.0
aF363.0
asg5
S'bed'
p770
sa(dp771
g3
(lp772
F498.0
aF67.0
aF54.0
aF42.0
asg5
S'person'
p773
sa(dp774
g3
(lp775
F509.0
aF153.5
aF40.0
aF27.0
asg5
S'pictureframe'
p776
sa(dp777
g3
(lp778
F172.5
aF135.5
aF27.0
aF21.0
asg5
S'pictureframe'
p779
sa(dp780
g3
(lp781
F517.0
aF220.5
aF96.0
aF127.0
asg5
S'nightstand'
p782
sa(dp783
g3
(lp784
F160.5
aF158.5
aF89.0
aF41.0
asg5
S'nightstand'
p785
sa(dp786
g3
(lp787
F105.5
aF144.5
aF95.0
aF39.0
asg5
S'heater'
p788
sa(dp789
g3
(lp790
F31.0
aF41.5
aF58.0
aF81.0
asg5
S'windowblind'
p791
sa(dp792
g3
(lp793
F256.0
aF123.5
aF86.0
aF67.0
asg5
S'pillow'
p794
sa(dp795
g3
(lp796
F371.0
aF142.0
aF110.0
aF62.0
asg5
S'pillow'
p797
saa(lp798
(dp799
g3
(lp800
F99.5
aF248.5
aF193.0
aF101.0
asg5
S'heater'
p801
sa(dp802
g3
(lp803
F121.0
aF295.5
aF78.0
aF99.0
asg5
S'pottedplant'
p804
sa(dp805
g3
(lp806
F417.5
aF246.5
aF177.0
aF111.0
asg5
S'book'
p807
sa(dp808
g3
(lp809
F392.5
aF375.0
aF97.0
aF114.0
asg5
S'book'
p810
sa(dp811
g3
(lp812
F496.5
aF408.0
aF93.0
aF90.0
asg5
S'book'
p813
sa(dp814
g3
(lp815
F599.0
aF276.0
aF62.0
aF80.0
asg5
S'book'
p816
sa(dp817
g3
(lp818
F594.0
aF405.0
aF74.0
aF114.0
asg5
S'book'
p819
sa(dp820
g3
(lp821
F476.5
aF237.0
aF317.0
aF468.0
asg5
S'bookcase'
p822
sa(dp823
g3
(lp824
F118.5
aF319.0
aF47.0
aF54.0
asg5
S'vase'
p825
sa(dp826
g3
(lp827
F166.0
aF400.5
aF296.0
aF153.0
asg5
S'coffeetable'
p828
saa(lp829
(dp830
g3
(lp831
F449.0
aF142.5
aF48.0
aF35.0
asg5
S'pictureframe'
p832
sa(dp833
g3
(lp834
F476.0
aF135.0
aF44.0
aF48.0
asg5
S'heater'
p835
sa(dp836
g3
(lp837
F40.0
aF187.0
aF70.0
aF72.0
asg5
S'pillow'
p838
sa(dp839
g3
(lp840
F441.5
aF75.5
aF101.0
aF141.0
asg5
S'pottedplant'
p841
sa(dp842
g3
(lp843
F572.5
aF131.0
aF133.0
aF222.0
asg5
S'tvmonitor'
p844
sa(dp845
g3
(lp846
F78.5
aF309.5
aF151.0
aF333.0
asg5
S'sofa'
p847
sa(dp848
g3
(lp849
F487.0
aF311.5
aF248.0
aF205.0
asg5
S'coffeetable'
p850
saa(lp851
(dp852
g3
(lp853
F446.0
aF89.0
aF200.0
aF156.0
asg5
S'cabinetry'
p854
sa(dp855
g3
(lp856
F233.5
aF71.5
aF101.0
aF115.0
asg5
S'door'
p857
sa(dp858
g3
(lp859
F131.5
aF244.0
aF155.0
aF186.0
asg5
S'chair'
p860
sa(dp861
g3
(lp862
F211.0
aF197.5
aF122.0
aF157.0
asg5
S'chair'
p863
sa(dp864
g3
(lp865
F310.0
aF259.0
aF140.0
aF210.0
asg5
S'chair'
p866
sa(dp867
g3
(lp868
F553.5
aF154.0
aF83.0
aF162.0
asg5
S'chair'
p869
sa(dp870
g3
(lp871
F228.0
aF231.0
aF248.0
aF194.0
asg5
S'diningtable'
p872
sa(dp873
g3
(lp874
F481.5
aF180.0
aF169.0
aF144.0
asg5
S'diningtable'
p875
sa(dp876
g3
(lp877
F168.5
aF137.5
aF33.0
aF37.0
asg5
S'cup'
p878
saa(lp879
(dp880
g3
(lp881
F605.5
aF256.0
aF59.0
aF326.0
asg5
S'chair'
p882
sa(dp883
g3
(lp884
F42.0
aF229.0
aF80.0
aF176.0
asg5
S'diningtable'
p885
saa(lp886
(dp887
g3
(lp888
F106.5
aF192.0
aF131.0
aF96.0
asg5
S'pillow'
p889
sa(dp890
g3
(lp891
F177.0
aF184.5
aF98.0
aF105.0
asg5
S'pillow'
p892
sa(dp893
g3
(lp894
F234.0
aF179.5
aF86.0
aF79.0
asg5
S'pillow'
p895
sa(dp896
g3
(lp897
F616.0
aF109.0
aF40.0
aF216.0
asg5
S'pottedplant'
p898
sa(dp899
g3
(lp900
F214.0
aF106.0
aF78.0
aF60.0
asg5
S'chair'
p901
sa(dp902
g3
(lp903
F103.5
aF397.5
aF179.0
aF159.0
asg5
S'chair'
p904
sa(dp905
g3
(lp906
F176.5
aF305.5
aF325.0
aF337.0
asg5
S'sofa'
p907
sa(dp908
g3
(lp909
F589.0
aF335.0
aF92.0
aF222.0
asg5
S'coffeetable'
p910
saa(lp911
(dp912
g3
(lp913
F84.5
aF259.0
aF159.0
aF98.0
asg5
S'heater'
p914
sa(dp915
g3
(lp916
F77.5
aF301.5
aF89.0
aF103.0
asg5
S'pottedplant'
p917
sa(dp918
g3
(lp919
F373.0
aF251.0
aF160.0
aF132.0
asg5
S'book'
p920
sa(dp921
g3
(lp922
F365.5
aF380.5
aF95.0
aF111.0
asg5
S'book'
p923
sa(dp924
g3
(lp925
F475.5
aF409.5
aF97.0
aF79.0
asg5
S'book'
p926
sa(dp927
g3
(lp928
F580.0
aF258.0
aF118.0
aF108.0
asg5
S'book'
p929
sa(dp930
g3
(lp931
F573.5
aF399.0
aF129.0
aF132.0
asg5
S'book'
p932
sa(dp933
g3
(lp934
F457.5
aF238.0
aF355.0
aF468.0
asg5
S'bookcase'
p935
sa(dp936
g3
(lp937
F80.5
aF333.0
aF53.0
aF54.0
asg5
S'vase'
p938
sa(dp939
g3
(lp940
F151.0
aF404.5
aF264.0
aF145.0
asg5
S'coffeetable'
p941
saa(lp942
(dp943
g3
(lp944
F541.0
aF343.0
aF186.0
aF264.0
asg5
S'chair'
p945
sa(dp946
g3
(lp947
F587.5
aF289.0
aF91.0
aF318.0
asg5
S'chair'
p948
sa(dp949
g3
(lp950
F578.5
aF308.0
aF119.0
aF270.0
asg5
S'diningtable'
p951
sa(dp952
g3
(lp953
F401.0
aF78.5
aF16.0
aF39.0
asg5
S'cup'
p954
sa(dp955
g3
(lp956
F418.0
aF77.0
aF22.0
aF48.0
asg5
S'cup'
p957
sa(dp958
g3
(lp959
F381.5
aF185.5
aF245.0
aF205.0
asg5
S'countertop'
p960
sa(dp961
g3
(lp962
F347.5
aF79.5
aF35.0
aF33.0
asg5
S'tap'
p963
sa(dp964
g3
(lp965
F232.5
aF223.0
aF59.0
aF70.0
asg5
S'wastecontainer'
p966
sa(dp967
g3
(lp968
F378.5
aF79.0
aF13.0
aF36.0
asg5
S'tincan'
p969
sa(dp970
g3
(lp971
F443.0
aF69.0
aF28.0
aF46.0
asg5
S'bottle'
p972
saa(lp973
(dp974
g3
(lp975
F49.5
aF134.5
aF97.0
aF123.0
asg5
S'bed'
p976
sa(dp977
g3
(lp978
F169.0
aF55.5
aF40.0
aF23.0
asg5
S'person'
p979
sa(dp980
g3
(lp981
F460.5
aF28.5
aF177.0
aF51.0
asg5
S'shelf'
p982
sa(dp983
g3
(lp984
F524.0
aF86.0
aF18.0
aF42.0
asg5
S'cup'
p985
sa(dp986
g3
(lp987
F546.5
aF86.5
aF25.0
aF55.0
asg5
S'cup'
p988
sa(dp989
g3
(lp990
F496.5
aF193.0
aF269.0
aF194.0
asg5
S'countertop'
p991
sa(dp992
g3
(lp993
F470.0
aF87.0
aF38.0
aF34.0
asg5
S'tap'
p994
sa(dp995
g3
(lp996
F338.0
aF240.0
aF62.0
aF66.0
asg5
S'wastecontainer'
p997
sa(dp998
g3
(lp999
F503.0
aF86.5
aF20.0
aF39.0
asg5
S'tincan'
p1000
sa(dp1001
g3
(lp1002
F578.0
aF79.0
aF32.0
aF54.0
asg5
S'bottle'
p1003
sa(dp1004
g3
(lp1005
F411.5
aF77.0
aF21.0
aF60.0
asg5
S'bottle'
p1006
saa(lp1007
(dp1008
g3
(lp1009
F50.5
aF136.0
aF97.0
aF126.0
asg5
S'bed'
p1010
sa(dp1011
g3
(lp1012
F218.5
aF56.5
aF37.0
aF27.0
asg5
S'person'
p1013
sa(dp1014
g3
(lp1015
F17.5
aF94.0
aF21.0
aF18.0
asg5
S'pictureframe'
p1016
sa(dp1017
g3
(lp1018
F70.0
aF86.5
aF62.0
aF39.0
asg5
S'pillow'
p1019
sa(dp1020
g3
(lp1021
F555.5
aF104.5
aF49.0
aF35.0
asg5
S'cup'
p1022
sa(dp1023
g3
(lp1024
F509.5
aF216.5
aF239.0
aF237.0
asg5
S'countertop'
p1025
sa(dp1026
g3
(lp1027
F500.0
aF89.5
aF50.0
aF41.0
asg5
S'tap'
p1028
sa(dp1029
g3
(lp1030
F341.5
aF257.0
aF69.0
aF78.0
asg5
S'wastecontainer'
p1031
sa(dp1032
g3
(lp1033
F516.0
aF108.0
aF182.0
aF46.0
asg5
S'sink'
p1034
saa(lp1035
(dp1036
g3
(lp1037
F400.0
aF191.5
aF106.0
aF95.0
asg5
S'pillow'
p1038
sa(dp1039
g3
(lp1040
F466.0
aF190.5
aF86.0
aF105.0
asg5
S'pillow'
p1041
sa(dp1042
g3
(lp1043
F526.0
aF187.5
aF80.0
aF89.0
asg5
S'pillow'
p1044
sa(dp1045
g3
(lp1046
F203.0
aF61.5
aF188.0
aF115.0
asg5
S'cabinetry'
p1047
sa(dp1048
g3
(lp1049
F35.5
aF55.0
aF67.0
aF94.0
asg5
S'door'
p1050
sa(dp1051
g3
(lp1052
F227.5
aF285.5
aF453.0
aF381.0
asg5
S'chair'
p1053
sa(dp1054
g3
(lp1055
F501.0
aF115.0
aF62.0
aF66.0
asg5
S'chair'
p1056
sa(dp1057
g3
(lp1058
F181.5
aF85.0
aF47.0
aF42.0
asg5
S'chair'
p1059
sa(dp1060
g3
(lp1061
F256.0
aF144.0
aF56.0
aF100.0
asg5
S'diningtable'
p1062
sa(dp1063
g3
(lp1064
F273.0
aF309.5
aF148.0
aF207.0
asg5
S'backpack'
p1065
sa(dp1066
g3
(lp1067
F166.0
aF363.0
aF196.0
aF226.0
asg5
S'backpack'
p1068
sa(dp1069
g3
(lp1070
F434.0
aF309.5
aF398.0
aF333.0
asg5
S'sofa'
p1071
saa(lp1072
(dp1073
g3
(lp1074
F531.5
aF201.0
aF125.0
aF100.0
asg5
S'pillow'
p1075
sa(dp1076
g3
(lp1077
F593.0
aF205.0
aF90.0
aF114.0
asg5
S'pillow'
p1078
sa(dp1079
g3
(lp1080
F55.0
aF80.0
aF108.0
aF150.0
asg5
S'cabinetry'
p1081
sa(dp1082
g3
(lp1083
F330.0
aF63.5
aF172.0
aF117.0
asg5
S'cabinetry'
p1084
sa(dp1085
g3
(lp1086
F154.5
aF53.0
aF79.0
aF90.0
asg5
S'door'
p1087
sa(dp1088
g3
(lp1089
F364.5
aF288.0
aF425.0
aF376.0
asg5
S'chair'
p1090
sa(dp1091
g3
(lp1092
F54.5
aF173.5
aF89.0
aF135.0
asg5
S'chair'
p1093
sa(dp1094
g3
(lp1095
F131.0
aF180.5
aF52.0
aF135.0
asg5
S'chair'
p1096
sa(dp1097
g3
(lp1098
F309.5
aF78.5
aF43.0
aF39.0
asg5
S'chair'
p1099
sa(dp1100
g3
(lp1101
F85.5
aF174.0
aF127.0
aF146.0
asg5
S'diningtable'
p1102
sa(dp1103
g3
(lp1104
F378.0
aF146.5
aF48.0
aF101.0
asg5
S'diningtable'
p1105
sa(dp1106
g3
(lp1107
F289.5
aF353.5
aF173.0
aF229.0
asg5
S'backpack'
p1108
sa(dp1109
g3
(lp1110
F393.5
aF312.5
aF139.0
aF213.0
asg5
S'backpack'
p1111
sa(dp1112
g3
(lp1113
F92.0
aF104.5
aF22.0
aF35.0
asg5
S'tincan'
p1114
sa(dp1115
g3
(lp1116
F116.0
aF106.0
aF18.0
aF36.0
asg5
S'tincan'
p1117
sa(dp1118
g3
(lp1119
F513.0
aF305.5
aF250.0
aF331.0
asg5
S'sofa'
p1120
saa(lp1121
(dp1122
g3
(lp1123
F425.5
aF143.5
aF27.0
aF27.0
asg5
S'pictureframe'
p1124
sa(dp1125
g3
(lp1126
F224.5
aF113.5
aF39.0
aF27.0
asg5
S'pictureframe'
p1127
sa(dp1128
g3
(lp1129
F457.0
aF136.0
aF86.0
aF42.0
asg5
S'heater'
p1130
sa(dp1131
g3
(lp1132
F281.5
aF34.0
aF71.0
aF60.0
asg5
S'windowblind'
p1133
sa(dp1134
g3
(lp1135
F202.0
aF80.0
aF68.0
aF144.0
asg5
S'pottedplant'
p1136
sa(dp1137
g3
(lp1138
F254.0
aF118.0
aF24.0
aF24.0
asg5
S'pottedplant'
p1139
sa(dp1140
g3
(lp1141
F470.0
aF142.5
aF20.0
aF39.0
asg5
S'pottedplant'
p1142
sa(dp1143
g3
(lp1144
F166.0
aF267.5
aF316.0
aF363.0
asg5
S'chair'
p1145
sa(dp1146
g3
(lp1147
F350.5
aF93.0
aF135.0
aF102.0
asg5
S'tvmonitor'
p1148
sa(dp1149
g3
(lp1150
F117.0
aF239.5
aF230.0
aF249.0
asg5
S'sofa'
p1151
sa(dp1152
g3
(lp1153
F304.5
aF181.5
aF139.0
aF91.0
asg5
S'coffeetable'
p1154
sa(dp1155
g3
(lp1156
F476.0
aF201.0
aF106.0
aF96.0
asg5
S'coffeetable'
p1157
saa(lp1158
(dp1159
g3
(lp1160
F453.0
aF242.5
aF152.0
aF105.0
asg5
S'pillow'
p1161
sa(dp1162
g3
(lp1163
F445.5
aF195.0
aF135.0
aF88.0
asg5
S'pillow'
p1164
sa(dp1165
g3
(lp1166
F551.5
aF187.0
aF123.0
aF94.0
asg5
S'pillow'
p1167
sa(dp1168
g3
(lp1169
F294.5
aF67.0
aF179.0
aF114.0
asg5
S'cabinetry'
p1170
sa(dp1171
g3
(lp1172
F128.0
aF46.0
aF88.0
aF84.0
asg5
S'door'
p1173
sa(dp1174
g3
(lp1175
F187.5
aF283.0
aF371.0
aF384.0
asg5
S'chair'
p1176
sa(dp1177
g3
(lp1178
F253.0
aF129.5
aF84.0
aF123.0
asg5
S'chair'
p1179
sa(dp1180
g3
(lp1181
F561.5
aF117.5
aF83.0
aF81.0
asg5
S'chair'
p1182
sa(dp1183
g3
(lp1184
F300.5
aF134.5
aF109.0
aF85.0
asg5
S'diningtable'
p1185
sa(dp1186
g3
(lp1187
F431.0
aF303.0
aF410.0
aF336.0
asg5
S'sofa'
p1188
sa(dp1189
g3
(lp1190
F370.5
aF236.0
aF97.0
aF48.0
asg5
S'remote'
p1191
saa(lp1192
(dp1193
g3
(lp1194
F554.0
aF89.0
aF166.0
aF168.0
asg5
S'cabinetry'
p1195
sa(dp1196
g3
(lp1197
F457.0
aF189.0
aF140.0
aF228.0
asg5
S'countertop'
p1198
sa(dp1199
g3
(lp1200
F392.5
aF259.0
aF61.0
aF78.0
asg5
S'wastecontainer'
p1201
sa(dp1202
g3
(lp1203
F482.0
aF94.0
aF28.0
aF20.0
asg5
S'bowl'
p1204
saa(lp1205
(dp1206
g3
(lp1207
F278.5
aF235.0
aF153.0
aF98.0
asg5
S'pillow'
p1208
sa(dp1209
g3
(lp1210
F281.5
aF192.0
aF143.0
aF96.0
asg5
S'pillow'
p1211
sa(dp1212
g3
(lp1213
F372.5
aF179.5
aF109.0
aF81.0
asg5
S'pillow'
p1214
sa(dp1215
g3
(lp1216
F126.5
aF74.5
aF187.0
aF137.0
asg5
S'cabinetry'
p1217
sa(dp1218
g3
(lp1219
F111.5
aF307.0
aF217.0
aF338.0
asg5
S'chair'
p1220
sa(dp1221
g3
(lp1222
F70.5
aF133.0
aF101.0
aF134.0
asg5
S'chair'
p1223
sa(dp1224
g3
(lp1225
F431.0
aF160.5
aF166.0
aF177.0
asg5
S'chair'
p1226
sa(dp1227
g3
(lp1228
F124.5
aF148.5
aF137.0
aF103.0
asg5
S'diningtable'
p1229
sa(dp1230
g3
(lp1231
F276.0
aF293.5
aF460.0
aF297.0
asg5
S'sofa'
p1232
sa(dp1233
g3
(lp1234
F198.0
aF248.5
aF96.0
aF47.0
asg5
S'remote'
p1235
saa(lp1236
(dp1237
g3
(lp1238
F132.0
aF56.5
aF62.0
aF21.0
asg5
S'tvmonitor'
p1239
saa(lp1240
(dp1241
g3
(lp1242
F239.5
aF91.0
aF301.0
aF160.0
asg5
S'cabinetry'
p1243
sa(dp1244
g3
(lp1245
F446.5
aF52.0
aF93.0
aF90.0
asg5
S'door'
p1246
sa(dp1247
g3
(lp1248
F498.0
aF290.0
aF280.0
aF372.0
asg5
S'chair'
p1249
sa(dp1250
g3
(lp1251
F347.0
aF145.0
aF56.0
aF96.0
asg5
S'diningtable'
p1252
sa(dp1253
g3
(lp1254
F91.0
aF183.0
aF158.0
aF206.0
asg5
S'countertop'
p1255
sa(dp1256
g3
(lp1257
F57.5
aF74.5
aF35.0
aF27.0
asg5
S'tap'
p1258
sa(dp1259
g3
(lp1260
F33.5
aF272.0
aF61.0
aF84.0
asg5
S'wastecontainer'
p1261
sa(dp1262
g3
(lp1263
F371.5
aF91.0
aF19.0
aF54.0
asg5
S'bottle'
p1264
saa(lp1265
(dp1266
g3
(lp1267
F506.5
aF287.5
aF233.0
aF375.0
asg5
S'countertop'
p1268
sa(dp1269
g3
(lp1270
F499.0
aF95.5
aF60.0
aF51.0
asg5
S'tap'
p1271
sa(dp1272
g3
(lp1273
F394.5
aF415.5
aF139.0
aF121.0
asg5
S'wastecontainer'
p1274
sa(dp1275
g3
(lp1276
F514.5
aF125.5
aF199.0
aF41.0
asg5
S'sink'
p1277
sa(dp1278
g3
(lp1279
F584.0
aF86.0
aF50.0
aF90.0
asg5
S'bottle'
p1280
saa(lp1281
(dp1282
g3
(lp1283
F285.5
aF236.5
aF153.0
aF105.0
asg5
S'pillow'
p1284
sa(dp1285
g3
(lp1286
F289.0
aF192.0
aF144.0
aF88.0
asg5
S'pillow'
p1287
sa(dp1288
g3
(lp1289
F384.0
aF175.0
aF116.0
aF82.0
asg5
S'pillow'
p1290
sa(dp1291
g3
(lp1292
F137.0
aF68.5
aF204.0
aF123.0
asg5
S'cabinetry'
p1293
sa(dp1294
g3
(lp1295
F113.0
aF288.5
aF222.0
aF375.0
asg5
S'chair'
p1296
sa(dp1297
g3
(lp1298
F76.0
aF127.0
aF96.0
aF126.0
asg5
S'chair'
p1299
sa(dp1300
g3
(lp1301
F434.0
aF168.0
aF160.0
aF182.0
asg5
S'chair'
p1302
sa(dp1303
g3
(lp1304
F137.5
aF137.5
aF117.0
aF87.0
asg5
S'diningtable'
p1305
sa(dp1306
g3
(lp1307
F268.5
aF313.5
aF475.0
aF333.0
asg5
S'sofa'
p1308
sa(dp1309
g3
(lp1310
F209.5
aF239.0
aF93.0
aF42.0
asg5
S'remote'
p1311
saa(lp1312
(dp1313
g3
(lp1314
F611.5
aF199.0
aF47.0
aF64.0
asg5
S'pillow'
p1315
sa(dp1316
g3
(lp1317
F95.5
aF83.5
aF181.0
aF149.0
asg5
S'cabinetry'
p1318
sa(dp1319
g3
(lp1320
F394.5
aF58.5
aF177.0
aF101.0
asg5
S'cabinetry'
p1321
sa(dp1322
g3
(lp1323
F219.0
aF72.0
aF80.0
aF126.0
asg5
S'door'
p1324
sa(dp1325
g3
(lp1326
F467.0
aF288.5
aF340.0
aF375.0
asg5
S'chair'
p1327
sa(dp1328
g3
(lp1329
F141.5
aF169.0
aF97.0
aF124.0
asg5
S'chair'
p1330
sa(dp1331
g3
(lp1332
F234.5
aF175.5
aF103.0
aF129.0
asg5
S'chair'
p1333
sa(dp1334
g3
(lp1335
F370.5
aF79.0
aF39.0
aF48.0
asg5
S'chair'
p1336
sa(dp1337
g3
(lp1338
F185.5
aF163.5
aF55.0
aF133.0
asg5
S'chair'
p1339
sa(dp1340
g3
(lp1341
F188.5
aF170.0
aF153.0
aF132.0
asg5
S'diningtable'
p1342
sa(dp1343
g3
(lp1344
F428.0
aF352.5
aF150.0
aF225.0
asg5
S'backpack'
p1345
sa(dp1346
g3
(lp1347
F520.0
aF321.5
aF146.0
aF219.0
asg5
S'backpack'
p1348
sa(dp1349
g3
(lp1350
F170.5
aF102.0
aF13.0
aF36.0
asg5
S'tincan'
p1351
sa(dp1352
g3
(lp1353
F195.5
aF100.5
aF17.0
aF31.0
asg5
S'tincan'
p1354
sa(dp1355
g3
(lp1356
F571.0
aF269.5
aF134.0
aF235.0
asg5
S'sofa'
p1357
saa(lp1358
(dp1359
g3
(lp1360
F249.0
aF46.5
aF256.0
aF81.0
asg5
S'windowblind'
p1361
saa(lp1362
(dp1363
g3
(lp1364
F226.5
aF133.5
aF445.0
aF263.0
asg5
S'cabinetry'
p1365
sa(dp1366
g3
(lp1367
F565.0
aF126.5
aF142.0
aF243.0
asg5
S'door'
p1368
sa(dp1369
g3
(lp1370
F118.0
aF337.5
aF216.0
aF275.0
asg5
S'chair'
p1371
sa(dp1372
g3
(lp1373
F427.5
aF429.0
aF415.0
aF88.0
asg5
S'chair'
p1374
sa(dp1375
g3
(lp1376
F326.0
aF327.0
aF616.0
aF274.0
asg5
S'diningtable'
p1377
sa(dp1378
g3
(lp1379
F450.0
aF264.0
aF52.0
aF84.0
asg5
S'cup'
p1380
sa(dp1381
g3
(lp1382
F180.0
aF211.0
aF74.0
aF56.0
asg5
S'cup'
p1383
sa(dp1384
g3
(lp1385
F308.0
aF158.5
aF50.0
aF171.0
asg5
S'bottle'
p1386
saa(lp1387
(dp1388
g3
(lp1389
F504.5
aF82.0
aF261.0
aF156.0
asg5
S'cabinetry'
p1390
sa(dp1391
g3
(lp1392
F290.5
aF30.0
aF87.0
aF54.0
asg5
S'shelf'
p1393
sa(dp1394
g3
(lp1395
F590.0
aF189.0
aF92.0
aF146.0
asg5
S'chair'
p1396
sa(dp1397
g3
(lp1398
F332.0
aF186.5
aF166.0
aF189.0
asg5
S'countertop'
p1399
sa(dp1400
g3
(lp1401
F320.5
aF81.0
aF37.0
aF30.0
asg5
S'tap'
p1402
sa(dp1403
g3
(lp1404
F277.0
aF265.5
aF64.0
aF79.0
asg5
S'wastecontainer'
p1405
sa(dp1406
g3
(lp1407
F380.0
aF72.0
aF28.0
aF46.0
asg5
S'bottle'
p1408
sa(dp1409
g3
(lp1410
F368.0
aF78.5
aF24.0
aF45.0
asg5
S'tincan'
p1411
saa(lp1412
(dp1413
g3
(lp1414
F248.0
aF281.5
aF488.0
aF389.0
asg5
S'bed'
p1415
sa(dp1416
g3
(lp1417
F558.5
aF60.5
aF75.0
aF51.0
asg5
S'person'
p1418
sa(dp1419
g3
(lp1420
F567.5
aF154.0
aF51.0
aF32.0
asg5
S'pictureframe'
p1421
sa(dp1422
g3
(lp1423
F207.0
aF132.0
aF32.0
aF24.0
asg5
S'pictureframe'
p1424
sa(dp1425
g3
(lp1426
F574.5
aF230.5
aF113.0
aF141.0
asg5
S'nightstand'
p1427
sa(dp1428
g3
(lp1429
F195.5
aF157.0
aF93.0
aF38.0
asg5
S'nightstand'
p1430
sa(dp1431
g3
(lp1432
F133.5
aF145.5
aF81.0
aF41.0
asg5
S'heater'
p1433
sa(dp1434
g3
(lp1435
F50.5
aF40.0
aF95.0
aF78.0
asg5
S'windowblind'
p1436
sa(dp1437
g3
(lp1438
F295.5
aF119.5
aF99.0
aF73.0
asg5
S'pillow'
p1439
sa(dp1440
g3
(lp1441
F409.5
aF142.5
aF119.0
aF71.0
asg5
S'pillow'
p1442
sa(dp1443
g3
(lp1444
F143.5
aF238.5
aF169.0
aF99.0
asg5
S'backpack'
p1445
saa(lp1446
(dp1447
g3
(lp1448
F512.0
aF130.0
aF238.0
aF246.0
asg5
S'cabinetry'
p1449
sa(dp1450
g3
(lp1451
F559.5
aF337.5
aF153.0
aF277.0
asg5
S'chair'
p1452
sa(dp1453
g3
(lp1454
F558.5
aF284.5
aF145.0
aF123.0
asg5
S'diningtable'
p1455
sa(dp1456
g3
(lp1457
F243.0
aF100.0
aF38.0
aF40.0
asg5
S'cup'
p1458
sa(dp1459
g3
(lp1460
F211.5
aF243.0
aF375.0
aF292.0
asg5
S'countertop'
p1461
sa(dp1462
g3
(lp1463
F167.5
aF84.5
aF59.0
aF45.0
asg5
S'tap'
p1464
sa(dp1465
g3
(lp1466
F22.0
aF327.0
aF40.0
aF108.0
asg5
S'wastecontainer'
p1467
sa(dp1468
g3
(lp1469
F173.5
aF113.0
aF163.0
aF36.0
asg5
S'sink'
p1470
saa(lp1471
(dp1472
g3
(lp1473
F433.0
aF241.5
aF116.0
aF133.0
asg5
S'pillow'
p1474
sa(dp1475
g3
(lp1476
F365.5
aF201.0
aF103.0
aF60.0
asg5
S'pillow'
p1477
sa(dp1478
g3
(lp1479
F469.5
aF208.5
aF115.0
aF97.0
asg5
S'pillow'
p1480
sa(dp1481
g3
(lp1482
F293.5
aF79.5
aF175.0
aF131.0
asg5
S'cabinetry'
p1483
sa(dp1484
g3
(lp1485
F118.0
aF50.5
aF94.0
aF93.0
asg5
S'door'
p1486
sa(dp1487
g3
(lp1488
F186.0
aF278.5
aF364.0
aF383.0
asg5
S'chair'
p1489
sa(dp1490
g3
(lp1491
F547.0
aF125.0
aF92.0
aF84.0
asg5
S'chair'
p1492
sa(dp1493
g3
(lp1494
F328.5
aF117.5
aF75.0
aF105.0
asg5
S'chair'
p1495
sa(dp1496
g3
(lp1497
F287.5
aF136.0
aF121.0
aF88.0
asg5
S'diningtable'
p1498
sa(dp1499
g3
(lp1500
F425.0
aF305.5
aF422.0
aF327.0
asg5
S'sofa'
p1501
sa(dp1502
g3
(lp1503
F530.0
aF255.0
aF64.0
aF30.0
asg5
S'remote'
p1504
saa(lp1505
(dp1506
g3
(lp1507
F179.5
aF89.5
aF323.0
aF171.0
asg5
S'cabinetry'
p1508
sa(dp1509
g3
(lp1510
F74.5
aF279.5
aF131.0
aF393.0
asg5
S'chair'
p1511
sa(dp1512
g3
(lp1513
F114.0
aF339.0
aF200.0
aF278.0
asg5
S'diningtable'
p1514
saa(lp1515
(dp1516
g3
(lp1517
F506.5
aF120.0
aF181.0
aF226.0
asg5
S'door'
p1518
sa(dp1519
g3
(lp1520
F281.5
aF287.5
aF159.0
aF243.0
asg5
S'chair'
p1521
sa(dp1522
g3
(lp1523
F253.5
aF442.5
aF471.0
aF69.0
asg5
S'chair'
p1524
sa(dp1525
g3
(lp1526
F262.5
aF325.5
aF511.0
aF267.0
asg5
S'diningtable'
p1527
sa(dp1528
g3
(lp1529
F61.0
aF223.0
aF66.0
aF80.0
asg5
S'cup'
p1530
saa(lp1531
(dp1532
g3
(lp1533
F310.0
aF234.0
aF126.0
aF132.0
asg5
S'pillow'
p1534
sa(dp1535
g3
(lp1536
F243.0
aF190.5
aF106.0
aF57.0
asg5
S'pillow'
p1537
sa(dp1538
g3
(lp1539
F348.0
aF194.0
aF104.0
aF90.0
asg5
S'pillow'
p1540
sa(dp1541
g3
(lp1542
F171.5
aF79.0
aF185.0
aF148.0
asg5
S'cabinetry'
p1543
sa(dp1544
g3
(lp1545
F131.5
aF286.5
aF255.0
aF379.0
asg5
S'chair'
p1546
sa(dp1547
g3
(lp1548
F467.0
aF170.0
aF156.0
aF186.0
asg5
S'chair'
p1549
sa(dp1550
g3
(lp1551
F169.0
aF134.5
aF124.0
aF83.0
asg5
S'diningtable'
p1552
sa(dp1553
g3
(lp1554
F303.0
aF305.0
aF436.0
aF336.0
asg5
S'sofa'
p1555
sa(dp1556
g3
(lp1557
F407.0
aF243.0
aF58.0
aF28.0
asg5
S'remote'
p1558
saa(lp1559
(dp1560
g3
(lp1561
F295.5
aF286.0
aF587.0
aF384.0
asg5
S'bed'
p1562
sa(dp1563
g3
(lp1564
F254.5
aF140.0
aF39.0
aF24.0
asg5
S'pictureframe'
p1565
sa(dp1566
g3
(lp1567
F241.0
aF169.0
aF104.0
aF50.0
asg5
S'nightstand'
p1568
sa(dp1569
g3
(lp1570
F177.5
aF152.5
aF85.0
aF59.0
asg5
S'heater'
p1571
sa(dp1572
g3
(lp1573
F71.5
aF41.5
aF139.0
aF75.0
asg5
S'windowblind'
p1574
sa(dp1575
g3
(lp1576
F354.0
aF125.5
aF108.0
aF81.0
asg5
S'pillow'
p1577
sa(dp1578
g3
(lp1579
F497.5
aF155.5
aF143.0
aF89.0
asg5
S'pillow'
p1580
sa(dp1581
g3
(lp1582
F169.5
aF271.0
aF209.0
aF118.0
asg5
S'backpack'
p1583
saa(lp1584
(dp1585
g3
(lp1586
F393.0
aF151.0
aF52.0
aF42.0
asg5
S'pictureframe'
p1587
sa(dp1588
g3
(lp1589
F385.0
aF107.0
aF112.0
aF210.0
asg5
S'pottedplant'
p1590
sa(dp1591
g3
(lp1592
F549.0
aF151.5
aF178.0
aF265.0
asg5
S'tvmonitor'
p1593
sa(dp1594
g3
(lp1595
F161.5
aF65.0
aF85.0
aF30.0
asg5
S'tvmonitor'
p1596
sa(dp1597
g3
(lp1598
F438.5
aF341.5
aF301.0
aF249.0
asg5
S'coffeetable'
p1599
saa(lp1600
(dp1601
g3
(lp1602
F427.5
aF149.5
aF51.0
aF43.0
asg5
S'pictureframe'
p1603
sa(dp1604
g3
(lp1605
F454.0
aF145.0
aF62.0
aF50.0
asg5
S'heater'
p1606
sa(dp1607
g3
(lp1608
F419.5
aF93.0
aF97.0
aF174.0
asg5
S'pottedplant'
p1609
sa(dp1610
g3
(lp1611
F566.0
aF136.5
aF148.0
aF269.0
asg5
S'tvmonitor'
p1612
sa(dp1613
g3
(lp1614
F40.0
aF283.5
aF70.0
aF257.0
asg5
S'sofa'
p1615
sa(dp1616
g3
(lp1617
F469.5
aF348.5
aF305.0
aF249.0
asg5
S'coffeetable'
p1618
saa(lp1619
(dp1620
g3
(lp1621
F237.0
aF111.0
aF462.0
aF212.0
asg5
S'cabinetry'
p1622
sa(dp1623
g3
(lp1624
F570.0
aF132.5
aF138.0
aF249.0
asg5
S'door'
p1625
sa(dp1626
g3
(lp1627
F385.5
aF185.0
aF143.0
aF42.0
asg5
S'chair'
p1628
sa(dp1629
g3
(lp1630
F344.5
aF401.5
aF389.0
aF141.0
asg5
S'chair'
p1631
sa(dp1632
g3
(lp1633
F82.0
aF325.0
aF152.0
aF282.0
asg5
S'chair'
p1634
sa(dp1635
g3
(lp1636
F317.5
aF333.0
aF591.0
aF282.0
asg5
S'diningtable'
p1637
sa(dp1638
g3
(lp1639
F344.5
aF217.0
aF43.0
aF90.0
asg5
S'tincan'
p1640
saa(lp1641
(dp1642
g3
(lp1643
F129.0
aF104.5
aF248.0
aF199.0
asg5
S'cabinetry'
p1644
sa(dp1645
g3
(lp1646
F479.0
aF81.5
aF182.0
aF141.0
asg5
S'cabinetry'
p1647
sa(dp1648
g3
(lp1649
F295.5
aF57.0
aF79.0
aF86.0
asg5
S'door'
p1650
sa(dp1651
g3
(lp1652
F237.0
aF189.0
aF102.0
aF150.0
asg5
S'chair'
p1653
sa(dp1654
g3
(lp1655
F363.5
aF199.0
aF95.0
aF150.0
asg5
S'chair'
p1656
sa(dp1657
g3
(lp1658
F488.5
aF135.0
aF73.0
aF138.0
asg5
S'chair'
p1659
sa(dp1660
g3
(lp1661
F305.0
aF187.0
aF168.0
aF174.0
asg5
S'diningtable'
p1662
sa(dp1663
g3
(lp1664
F522.5
aF156.5
aF141.0
aF123.0
asg5
S'diningtable'
p1665
sa(dp1666
g3
(lp1667
F285.5
aF109.5
aF23.0
aF39.0
asg5
S'tincan'
p1668
sa(dp1669
g3
(lp1670
F315.0
aF108.5
aF18.0
aF45.0
asg5
S'tincan'
p1671
saa(lp1672
(dp1673
g3
(lp1674
F561.0
aF162.0
aF158.0
aF314.0
asg5
S'cabinetry'
p1675
sa(dp1676
g3
(lp1677
F295.0
aF129.0
aF62.0
aF64.0
asg5
S'cup'
p1678
sa(dp1679
g3
(lp1680
F366.5
aF126.0
aF73.0
aF70.0
asg5
S'cup'
p1681
sa(dp1682
g3
(lp1683
F267.5
aF298.0
aF517.0
aF354.0
asg5
S'countertop'
p1684
sa(dp1685
g3
(lp1686
F180.0
aF100.5
aF70.0
aF71.0
asg5
S'tap'
p1687
sa(dp1688
g3
(lp1689
F214.5
aF150.0
aF385.0
aF68.0
asg5
S'sink'
p1690
saa(lp1691
(dp1692
g3
(lp1693
F130.0
aF96.5
aF246.0
aF189.0
asg5
S'cabinetry'
p1694
sa(dp1695
g3
(lp1696
F493.5
aF74.5
aF197.0
aF129.0
asg5
S'cabinetry'
p1697
sa(dp1698
g3
(lp1699
F295.5
aF64.5
aF87.0
aF109.0
asg5
S'door'
p1700
sa(dp1701
g3
(lp1702
F243.5
aF231.5
aF133.0
aF201.0
asg5
S'chair'
p1703
sa(dp1704
g3
(lp1705
F387.5
aF234.0
aF131.0
aF180.0
asg5
S'chair'
p1706
sa(dp1707
g3
(lp1708
F307.5
aF197.0
aF105.0
aF162.0
asg5
S'chair'
p1709
sa(dp1710
g3
(lp1711
F521.5
aF143.0
aF99.0
aF156.0
asg5
S'chair'
p1712
sa(dp1713
g3
(lp1714
F309.5
aF223.0
aF233.0
aF208.0
asg5
S'diningtable'
p1715
sa(dp1716
g3
(lp1717
F553.5
aF171.0
aF159.0
aF138.0
asg5
S'diningtable'
p1718
sa(dp1719
g3
(lp1720
F289.0
aF124.5
aF18.0
aF43.0
asg5
S'tincan'
p1721
sa(dp1722
g3
(lp1723
F323.5
aF127.0
aF17.0
aF42.0
asg5
S'tincan'
p1724
sa(dp1725
g3
(lp1726
F271.5
aF121.5
aF25.0
aF21.0
asg5
S'bowl'
p1727
sa(dp1728
g3
(lp1729
F324.5
aF119.5
aF45.0
aF19.0
asg5
S'bowl'
p1730
sa(dp1731
g3
(lp1732
F600.5
aF113.5
aF23.0
aF29.0
asg5
S'doll'
p1733
saa(lp1734
(dp1735
g3
(lp1736
F247.0
aF102.0
aF418.0
aF196.0
asg5
S'cabinetry'
p1737
sa(dp1738
g3
(lp1739
F514.0
aF68.0
aF94.0
aF120.0
asg5
S'door'
p1740
sa(dp1741
g3
(lp1742
F433.0
aF235.0
aF138.0
aF186.0
asg5
S'chair'
p1743
sa(dp1744
g3
(lp1745
F496.5
aF204.0
aF115.0
aF168.0
asg5
S'chair'
p1746
sa(dp1747
g3
(lp1748
F567.0
aF267.0
aF140.0
aF232.0
asg5
S'chair'
p1749
sa(dp1750
g3
(lp1751
F511.0
aF240.5
aF244.0
aF219.0
asg5
S'diningtable'
p1752
sa(dp1753
g3
(lp1754
F77.0
aF286.5
aF140.0
aF367.0
asg5
S'countertop'
p1755
sa(dp1756
g3
(lp1757
F506.5
aF136.0
aF27.0
aF48.0
asg5
S'tincan'
p1758
sa(dp1759
g3
(lp1760
F545.0
aF136.5
aF24.0
aF51.0
asg5
S'tincan'
p1761
sa(dp1762
g3
(lp1763
F45.5
aF129.0
aF71.0
aF44.0
asg5
S'sink'
p1764
saa(lp1765
(dp1766
g3
(lp1767
F612.5
aF180.0
aF47.0
aF90.0
asg5
S'bed'
p1768
sa(dp1769
g3
(lp1770
F360.0
aF35.0
aF88.0
aF60.0
asg5
S'windowblind'
p1771
sa(dp1772
g3
(lp1773
F150.5
aF291.0
aF285.0
aF358.0
asg5
S'chair'
p1774
sa(dp1775
g3
(lp1776
F219.0
aF100.5
aF50.0
aF9.0
asg5
S'book'
p1777
sa(dp1778
g3
(lp1779
F281.5
aF112.5
aF43.0
aF25.0
asg5
S'book'
p1780
sa(dp1781
g3
(lp1782
F285.0
aF148.5
aF38.0
aF37.0
asg5
S'book'
p1783
sa(dp1784
g3
(lp1785
F253.5
aF110.0
aF115.0
aF210.0
asg5
S'bookcase'
p1786
saa(lp1787
(dp1788
g3
(lp1789
F518.0
aF34.0
aF118.0
aF60.0
asg5
S'windowblind'
p1790
sa(dp1791
g3
(lp1792
F296.0
aF283.5
aF282.0
aF363.0
asg5
S'chair'
p1793
sa(dp1794
g3
(lp1795
F115.5
aF94.0
aF183.0
aF112.0
asg5
S'tvmonitor'
p1796
sa(dp1797
g3
(lp1798
F406.0
aF115.5
aF98.0
aF211.0
asg5
S'bookcase'
p1799
sa(dp1800
g3
(lp1801
F120.5
aF312.5
aF229.0
aF297.0
asg5
S'sofa'
p1802
saa(lp1803
(dp1804
g3
(lp1805
F359.5
aF290.5
aF71.0
aF83.0
asg5
S'pictureframe'
p1806
sa(dp1807
g3
(lp1808
F49.0
aF149.5
aF52.0
aF49.0
asg5
S'pictureframe'
p1809
sa(dp1810
g3
(lp1811
F441.5
aF238.0
aF231.0
aF136.0
asg5
S'heater'
p1812
sa(dp1813
g3
(lp1814
F45.5
aF100.5
aF85.0
aF191.0
asg5
S'pottedplant'
p1815
sa(dp1816
g3
(lp1817
F485.0
aF289.5
aF60.0
aF95.0
asg5
S'pottedplant'
p1818
sa(dp1819
g3
(lp1820
F85.5
aF162.0
aF37.0
aF50.0
asg5
S'pottedplant'
p1821
sa(dp1822
g3
(lp1823
F214.0
aF143.5
aF220.0
aF285.0
asg5
S'tvmonitor'
p1824
sa(dp1825
g3
(lp1826
F476.0
aF312.5
aF40.0
aF45.0
asg5
S'vase'
p1827
saa(lp1828
(dp1829
g3
(lp1830
F214.5
aF127.5
aF47.0
aF29.0
asg5
S'pictureframe'
p1831
sa(dp1832
g3
(lp1833
F296.0
aF205.0
aF146.0
aF40.0
asg5
S'pillow'
p1834
sa(dp1835
g3
(lp1836
F174.5
aF110.5
aF79.0
aF147.0
asg5
S'pottedplant'
p1837
sa(dp1838
g3
(lp1839
F530.0
aF295.5
aF212.0
aF363.0
asg5
S'chair'
p1840
sa(dp1841
g3
(lp1842
F397.5
aF95.5
aF169.0
aF99.0
asg5
S'tvmonitor'
p1843
sa(dp1844
g3
(lp1845
F229.0
aF300.0
aF448.0
aF300.0
asg5
S'sofa'
p1846
sa(dp1847
g3
(lp1848
F176.0
aF166.5
aF42.0
aF35.0
asg5
S'vase'
p1849
sa(dp1850
g3
(lp1851
F366.0
aF178.0
aF154.0
aF54.0
asg5
S'coffeetable'
p1852
sa(dp1853
g3
(lp1854
F228.0
aF163.5
aF102.0
aF59.0
asg5
S'coffeetable'
p1855
saa(lp1856
(dp1857
g3
(lp1858
F107.5
aF106.0
aF211.0
aF204.0
asg5
S'cabinetry'
p1859
sa(dp1860
g3
(lp1861
F458.5
aF79.5
aF193.0
aF147.0
asg5
S'cabinetry'
p1862
sa(dp1863
g3
(lp1864
F258.0
aF72.5
aF92.0
aF117.0
asg5
S'door'
p1865
sa(dp1866
g3
(lp1867
F199.5
aF244.0
aF149.0
aF212.0
asg5
S'chair'
p1868
sa(dp1869
g3
(lp1870
F356.5
aF252.0
aF129.0
aF208.0
asg5
S'chair'
p1871
sa(dp1872
g3
(lp1873
F488.0
aF152.5
aF100.0
aF169.0
asg5
S'chair'
p1874
sa(dp1875
g3
(lp1876
F261.0
aF207.0
aF106.0
aF176.0
asg5
S'chair'
p1877
sa(dp1878
g3
(lp1879
F280.0
aF230.5
aF276.0
aF211.0
asg5
S'diningtable'
p1880
sa(dp1881
g3
(lp1882
F520.5
aF178.5
aF165.0
aF143.0
asg5
S'diningtable'
p1883
sa(dp1884
g3
(lp1885
F257.0
aF130.5
aF18.0
aF39.0
asg5
S'tincan'
p1886
sa(dp1887
g3
(lp1888
F286.0
aF130.0
aF20.0
aF48.0
asg5
S'tincan'
p1889
sa(dp1890
g3
(lp1891
F290.0
aF125.5
aF42.0
aF11.0
asg5
S'bowl'
p1892
sa(dp1893
g3
(lp1894
F568.5
aF112.5
aF19.0
aF21.0
asg5
S'doll'
p1895
saa(lp1896
(dp1897
g3
(lp1898
F348.5
aF84.5
aF195.0
aF159.0
asg5
S'cabinetry'
p1899
sa(dp1900
g3
(lp1901
F119.0
aF80.0
aF134.0
aF156.0
asg5
S'door'
p1902
sa(dp1903
g3
(lp1904
F253.5
aF330.0
aF191.0
aF294.0
asg5
S'chair'
p1905
sa(dp1906
g3
(lp1907
F74.5
aF300.0
aF147.0
aF302.0
asg5
S'chair'
p1908
sa(dp1909
g3
(lp1910
F393.5
aF158.5
aF107.0
aF189.0
asg5
S'chair'
p1911
sa(dp1912
g3
(lp1913
F438.0
aF201.0
aF182.0
aF162.0
asg5
S'diningtable'
p1914
sa(dp1915
g3
(lp1916
F162.5
aF300.5
aF311.0
aF315.0
asg5
S'diningtable'
p1917
sa(dp1918
g3
(lp1919
F90.0
aF158.5
aF38.0
aF69.0
asg5
S'tincan'
p1920
sa(dp1921
g3
(lp1922
F143.0
aF154.5
aF32.0
aF65.0
asg5
S'tincan'
p1923
sa(dp1924
g3
(lp1925
F153.5
aF149.0
aF59.0
aF18.0
asg5
S'bowl'
p1926
sa(dp1927
g3
(lp1928
F487.5
aF120.0
aF27.0
aF28.0
asg5
S'doll'
p1929
saa(lp1930
(dp1931
g3
(lp1932
F498.0
aF167.5
aF278.0
aF329.0
asg5
S'cabinetry'
p1933
sa(dp1934
g3
(lp1935
F122.5
aF125.5
aF49.0
aF69.0
asg5
S'cup'
p1936
sa(dp1937
g3
(lp1938
F169.0
aF99.5
aF50.0
aF93.0
asg5
S'cup'
p1939
sa(dp1940
g3
(lp1941
F210.0
aF94.0
aF52.0
aF98.0
asg5
S'cup'
p1942
sa(dp1943
g3
(lp1944
F196.0
aF295.5
aF386.0
aF357.0
asg5
S'countertop'
p1945
sa(dp1946
g3
(lp1947
F33.0
aF101.5
aF64.0
aF65.0
asg5
S'tap'
p1948
sa(dp1949
g3
(lp1950
F259.5
aF82.5
aF33.0
aF103.0
asg5
S'bottle'
p1951
sa(dp1952
g3
(lp1953
F122.5
aF148.0
aF223.0
aF60.0
asg5
S'sink'
p1954
saa(lp1955
(dp1956
g3
(lp1957
F524.5
aF160.0
aF223.0
aF312.0
asg5
S'cabinetry'
p1958
sa(dp1959
g3
(lp1960
F194.0
aF119.5
aF40.0
aF49.0
asg5
S'cup'
p1961
sa(dp1962
g3
(lp1963
F231.5
aF102.5
aF53.0
aF87.0
asg5
S'cup'
p1964
sa(dp1965
g3
(lp1966
F272.5
aF96.0
aF45.0
aF88.0
asg5
S'cup'
p1967
sa(dp1968
g3
(lp1969
F216.0
aF290.5
aF422.0
aF361.0
asg5
S'countertop'
p1970
sa(dp1971
g3
(lp1972
F100.5
aF98.5
aF73.0
aF75.0
asg5
S'tap'
p1973
sa(dp1974
g3
(lp1975
F319.5
aF89.5
aF29.0
aF107.0
asg5
S'bottle'
p1976
sa(dp1977
g3
(lp1978
F105.5
aF147.0
aF195.0
aF44.0
asg5
S'sink'
p1979
saa(lp1980
(dp1981
g3
(lp1982
F447.5
aF127.0
aF373.0
aF246.0
asg5
S'cabinetry'
p1983
sa(dp1984
g3
(lp1985
F157.5
aF92.5
aF57.0
aF81.0
asg5
S'cup'
p1986
sa(dp1987
g3
(lp1988
F19.0
aF132.5
aF36.0
aF81.0
asg5
S'cup'
p1989
sa(dp1990
g3
(lp1991
F177.0
aF286.0
aF334.0
aF384.0
asg5
S'countertop'
p1992
sa(dp1993
g3
(lp1994
F78.5
aF99.0
aF29.0
aF70.0
asg5
S'tap'
p1995
sa(dp1996
g3
(lp1997
F134.5
aF135.5
aF241.0
aF57.0
asg5
S'sink'
p1998
saa(lp1999
(dp2000
g3
(lp2001
F478.0
aF137.5
aF318.0
aF267.0
asg5
S'cabinetry'
p2002
sa(dp2003
g3
(lp2004
F201.5
aF93.0
aF59.0
aF74.0
asg5
S'cup'
p2005
sa(dp2006
g3
(lp2007
F48.5
aF127.0
aF85.0
aF88.0
asg5
S'cup'
p2008
sa(dp2009
g3
(lp2010
F191.5
aF290.5
aF373.0
aF361.0
asg5
S'countertop'
p2011
sa(dp2012
g3
(lp2013
F121.5
aF98.5
aF45.0
aF75.0
asg5
S'tap'
p2014
sa(dp2015
g3
(lp2016
F157.5
aF139.5
aF183.0
aF73.0
asg5
S'sink'
p2017
saa(lp2018
(dp2019
g3
(lp2020
F285.5
aF127.0
aF555.0
aF240.0
asg5
S'cabinetry'
p2021
sa(dp2022
g3
(lp2023
F605.5
aF89.5
aF69.0
aF165.0
asg5
S'door'
p2024
sa(dp2025
g3
(lp2026
F504.5
aF315.0
aF223.0
aF282.0
asg5
S'chair'
p2027
sa(dp2028
g3
(lp2029
F540.5
aF313.5
aF189.0
aF297.0
asg5
S'diningtable'
p2030
sa(dp2031
g3
(lp2032
F64.5
aF297.5
aF127.0
aF363.0
asg5
S'countertop'
p2033
sa(dp2034
g3
(lp2035
F612.0
aF174.0
aF46.0
aF42.0
asg5
S'bowl'
p2036
saa(lp2037
(dp2038
g3
(lp2039
F285.0
aF132.0
aF554.0
aF254.0
asg5
S'cabinetry'
p2040
sa(dp2041
g3
(lp2042
F594.0
aF80.5
aF84.0
aF155.0
asg5
S'door'
p2043
sa(dp2044
g3
(lp2045
F445.5
aF313.5
aF213.0
aF267.0
asg5
S'chair'
p2046
sa(dp2047
g3
(lp2048
F571.5
aF281.5
aF131.0
aF237.0
asg5
S'chair'
p2049
sa(dp2050
g3
(lp2051
F526.5
aF309.5
aF217.0
aF303.0
asg5
S'diningtable'
p2052
sa(dp2053
g3
(lp2054
F579.0
aF191.5
aF48.0
aF75.0
asg5
S'tincan'
p2055
sa(dp2056
g3
(lp2057
F562.5
aF177.0
aF67.0
aF48.0
asg5
S'bowl'
p2058
saa(lp2059
(dp2060
g3
(lp2061
F253.5
aF138.0
aF497.0
aF264.0
asg5
S'cabinetry'
p2062
sa(dp2063
g3
(lp2064
F572.5
aF82.5
aF127.0
aF159.0
asg5
S'door'
p2065
sa(dp2066
g3
(lp2067
F357.5
aF330.0
aF195.0
aF286.0
asg5
S'chair'
p2068
sa(dp2069
g3
(lp2070
F557.5
aF375.0
aF155.0
aF194.0
asg5
S'chair'
p2071
sa(dp2072
g3
(lp2073
F470.5
aF312.0
aF331.0
aF298.0
asg5
S'diningtable'
p2074
sa(dp2075
g3
(lp2076
F465.5
aF200.0
aF45.0
aF84.0
asg5
S'tincan'
p2077
sa(dp2078
g3
(lp2079
F535.0
aF201.0
aF52.0
aF92.0
asg5
S'tincan'
p2080
sa(dp2081
g3
(lp2082
F579.0
aF192.0
aF62.0
aF38.0
asg5
S'bowl'
p2083
saa(lp2084
(dp2085
g3
(lp2086
F261.0
aF135.0
aF518.0
aF266.0
asg5
S'cabinetry'
p2087
sa(dp2088
g3
(lp2089
F581.0
aF88.5
aF114.0
aF173.0
asg5
S'door'
p2090
sa(dp2091
g3
(lp2092
F331.5
aF330.0
aF217.0
aF298.0
asg5
S'chair'
p2093
sa(dp2094
g3
(lp2095
F555.0
aF393.0
aF170.0
aF172.0
asg5
S'chair'
p2096
sa(dp2097
g3
(lp2098
F515.0
aF304.0
aF184.0
aF286.0
asg5
S'chair'
p2099
sa(dp2100
g3
(lp2101
F458.5
aF326.5
aF355.0
aF293.0
asg5
S'diningtable'
p2102
sa(dp2103
g3
(lp2104
F441.0
aF201.5
aF36.0
aF81.0
asg5
S'tincan'
p2105
sa(dp2106
g3
(lp2107
F513.5
aF201.5
aF43.0
aF81.0
asg5
S'tincan'
p2108
sa(dp2109
g3
(lp2110
F569.0
aF192.0
aF78.0
aF42.0
asg5
S'bowl'
p2111
sa(dp2112
g3
(lp2113
F476.0
aF186.0
aF42.0
aF44.0
asg5
S'bowl'
p2114
saa(lp2115
(dp2116
g3
(lp2117
F136.0
aF114.5
aF266.0
aF225.0
asg5
S'cabinetry'
p2118
sa(dp2119
g3
(lp2120
F533.0
aF87.0
aF196.0
aF154.0
asg5
S'cabinetry'
p2121
sa(dp2122
g3
(lp2123
F334.5
aF65.0
aF97.0
aF120.0
asg5
S'door'
p2124
sa(dp2125
g3
(lp2126
F234.5
aF232.5
aF125.0
aF191.0
asg5
S'chair'
p2127
sa(dp2128
g3
(lp2129
F399.5
aF244.0
aF115.0
aF184.0
asg5
S'chair'
p2130
sa(dp2131
g3
(lp2132
F307.0
aF193.5
aF94.0
aF155.0
asg5
S'chair'
p2133
sa(dp2134
g3
(lp2135
F611.0
aF163.0
aF54.0
aF154.0
asg5
S'chair'
p2136
sa(dp2137
g3
(lp2138
F343.5
aF220.0
aF219.0
aF208.0
asg5
S'diningtable'
p2139
sa(dp2140
g3
(lp2141
F556.0
aF188.0
aF142.0
aF168.0
asg5
S'diningtable'
p2142
sa(dp2143
g3
(lp2144
F271.5
aF131.0
aF31.0
aF36.0
asg5
S'cup'
p2145
saa.