(lp0
(lp1
(dp2
S'box'
p3
(lp4
F464.0
aF424.5
aF102.0
aF69.0
asS'confidence'
p5
S'0.619459'
p6
sS'name'
p7
S'book'
p8
sa(dp9
g3
(lp10
F309.5
aF213.0
aF61.0
aF70.0
asg5
S'0.510713'
p11
sg7
S'pottedplant'
p12
sa(dp13
g3
(lp14
F87.0
aF128.5
aF174.0
aF231.0
asg5
S'0.471781'
p15
sg7
S'tvmonitor'
p16
sa(dp17
g3
(lp18
F560.5
aF341.5
aF85.0
aF55.0
asg5
S'0.462608'
p19
sg7
S'book'
p20
sa(dp21
g3
(lp22
F478.5
aF233.0
aF99.0
aF28.0
asg5
S'0.460851'
p23
sg7
S'book'
p24
sa(dp25
g3
(lp26
F287.5
aF245.5
aF27.0
aF39.0
asg5
S'0.414941'
p27
sg7
S'cup'
p28
sa(dp29
g3
(lp30
F460.0
aF422.5
aF114.0
aF77.0
asg5
S'0.382881'
p31
sg7
S'book'
p32
sa(dp33
g3
(lp34
F462.0
aF449.5
aF114.0
aF41.0
asg5
S'0.369369'
p35
sg7
S'book'
p36
sa(dp37
g3
(lp38
F613.0
aF349.0
aF42.0
aF78.0
asg5
S'0.298196'
p39
sg7
S'book'
p40
sa(dp41
g3
(lp42
F281.5
aF211.0
aF45.0
aF56.0
asg5
S'0.297364'
p43
sg7
S'pottedplant'
p44
sa(dp45
g3
(lp46
F44.0
aF317.5
aF88.0
aF237.0
asg5
S'0.292345'
p47
sg7
S'chair'
p48
sa(dp49
g3
(lp50
F356.0
aF268.0
aF40.0
aF74.0
asg5
S'0.287150'
p51
sg7
S'bottle'
p52
sa(dp53
g3
(lp54
F466.0
aF306.5
aF66.0
aF69.0
asg5
S'0.272826'
p55
sg7
S'book'
p56
sa(dp57
g3
(lp58
F469.5
aF298.0
aF73.0
aF76.0
asg5
S'0.269833'
p59
sg7
S'book'
p60
sa(dp61
g3
(lp62
F212.0
aF232.0
aF50.0
aF52.0
asg5
S'0.261096'
p63
sg7
S'pictureframe'
p64
saa(lp65
(dp66
g3
(lp67
F434.5
aF273.0
aF35.0
aF76.0
asg5
S'0.569329'
p68
sg7
S'bottle'
p69
sa(dp70
g3
(lp71
F366.0
aF214.5
aF50.0
aF73.0
asg5
S'0.521316'
p72
sg7
S'pottedplant'
p73
sa(dp74
g3
(lp75
F555.5
aF242.0
aF109.0
aF34.0
asg5
S'0.473745'
p76
sg7
S'book'
p77
sa(dp78
g3
(lp79
F571.0
aF65.5
aF136.0
aF123.0
asg5
S'0.452213'
p80
sg7
S'tvmonitor'
p81
sa(dp82
g3
(lp83
F557.5
aF309.0
aF53.0
aF94.0
asg5
S'0.356840'
p84
sg7
S'book'
p85
sa(dp86
g3
(lp87
F525.5
aF448.5
aF119.0
aF43.0
asg5
S'0.354973'
p88
sg7
S'book'
p89
sa(dp90
g3
(lp91
F525.5
aF430.0
aF89.0
aF60.0
asg5
S'0.354335'
p92
sg7
S'book'
p93
sa(dp94
g3
(lp95
F527.5
aF303.5
aF49.0
aF93.0
asg5
S'0.352939'
p96
sg7
S'book'
p97
sa(dp98
g3
(lp99
F154.0
aF137.0
aF146.0
aF220.0
asg5
S'0.342337'
p100
sg7
S'tvmonitor'
p101
sa(dp102
g3
(lp103
F566.5
aF206.5
aF117.0
aF79.0
asg5
S'0.325701'
p104
sg7
S'book'
p105
sa(dp106
g3
(lp107
F135.5
aF129.0
aF243.0
aF222.0
asg5
S'0.283500'
p108
sg7
S'refrigerator'
p109
sa(dp110
g3
(lp111
F612.0
aF355.0
aF54.0
aF58.0
asg5
S'0.271981'
p112
sg7
S'book'
p113
sa(dp114
g3
(lp115
F276.0
aF232.5
aF58.0
aF55.0
asg5
S'0.260571'
p116
sg7
S'pictureframe'
p117
saa(lp118
(dp119
g3
(lp120
F40.5
aF82.5
aF75.0
aF141.0
asg5
S'0.529134'
p121
sg7
S'pottedplant'
p122
sa(dp123
g3
(lp124
F142.5
aF79.0
aF101.0
aF84.0
asg5
S'0.523199'
p125
sg7
S'tvmonitor'
p126
sa(dp127
g3
(lp128
F311.5
aF277.0
aF497.0
aF400.0
asg5
S'0.386569'
p129
sg7
S'refrigerator'
p130
sa(dp131
g3
(lp132
F365.0
aF52.5
aF146.0
aF93.0
asg5
S'0.374142'
p133
sg7
S'tvmonitor'
p134
sa(dp135
g3
(lp136
F68.5
aF96.5
aF111.0
aF153.0
asg5
S'0.346044'
p137
sg7
S'pottedplant'
p138
sa(dp139
g3
(lp140
F500.0
aF52.5
aF128.0
aF105.0
asg5
S'0.273336'
p141
sg7
S'windowblind'
p142
saa(lp143
(dp144
g3
(lp145
F560.0
aF137.5
aF156.0
aF275.0
asg5
S'0.537946'
p146
sg7
S'refrigerator'
p147
sa(dp148
g3
(lp149
F561.0
aF255.0
aF64.0
aF108.0
asg5
S'0.313999'
p150
sg7
S'wastecontainer'
p151
saa(lp152
(dp153
g3
(lp154
F109.5
aF312.5
aF199.0
aF325.0
asg5
S'0.833625'
p155
sg7
S'sofa'
p156
sa(dp157
g3
(lp158
F570.5
aF90.0
aF123.0
aF178.0
asg5
S'0.586544'
p159
sg7
S'pottedplant'
p160
sa(dp161
g3
(lp162
F566.0
aF379.0
aF144.0
aF192.0
asg5
S'0.570301'
p163
sg7
S'diningtable'
p164
sa(dp165
g3
(lp166
F595.0
aF174.0
aF80.0
aF60.0
asg5
S'0.338835'
p167
sg7
S'tvmonitor'
p168
saa(lp169
(dp170
g3
(lp171
F253.0
aF373.0
aF118.0
aF120.0
asg5
S'0.785086'
p172
sg7
S'remote'
p173
sa(dp174
g3
(lp175
F601.5
aF203.5
aF75.0
aF123.0
asg5
S'0.675353'
p176
sg7
S'chair'
p177
sa(dp178
g3
(lp179
F527.0
aF175.0
aF68.0
aF128.0
asg5
S'0.627778'
p180
sg7
S'chair'
p181
sa(dp182
g3
(lp183
F569.0
aF172.5
aF130.0
aF141.0
asg5
S'0.340181'
p184
sg7
S'diningtable'
p185
sa(dp186
g3
(lp187
F321.0
aF276.5
aF534.0
aF389.0
asg5
S'0.292752'
p188
sg7
S'sofa'
p189
saa(lp190
(dp191
g3
(lp192
F161.5
aF238.5
aF295.0
aF373.0
asg5
S'0.819480'
p193
sg7
S'pottedplant'
p194
sa(dp195
g3
(lp196
F477.0
aF248.0
aF102.0
aF76.0
asg5
S'0.728262'
p197
sg7
S'pottedplant'
p198
sa(dp199
g3
(lp200
F488.5
aF245.0
aF101.0
aF72.0
asg5
S'0.613840'
p201
sg7
S'pottedplant'
p202
sa(dp203
g3
(lp204
F232.5
aF276.0
aF37.0
aF38.0
asg5
S'0.551992'
p205
sg7
S'vase'
p206
sa(dp207
g3
(lp208
F327.5
aF247.0
aF181.0
aF86.0
asg5
S'0.540837'
p209
sg7
S'pictureframe'
p210
sa(dp211
g3
(lp212
F377.0
aF56.0
aF260.0
aF112.0
asg5
S'0.339878'
p213
sg7
S'windowblind'
p214
sa(dp215
g3
(lp216
F474.5
aF269.5
aF33.0
aF27.0
asg5
S'0.264438'
p217
sg7
S'vase'
p218
saa(lp219
(dp220
g3
(lp221
F554.0
aF223.5
aF158.0
aF447.0
asg5
S'0.726746'
p222
sg7
S'pottedplant'
p223
sa(dp224
g3
(lp225
F62.5
aF80.5
aF125.0
aF133.0
asg5
S'0.355530'
p226
sg7
S'tvmonitor'
p227
sa(dp228
g3
(lp229
F563.5
aF341.5
aF119.0
aF203.0
asg5
S'0.261603'
p230
sg7
S'vase'
p231
saa(lp232
(dp233
g3
(lp234
F330.0
aF316.5
aF344.0
aF325.0
asg5
S'0.712185'
p235
sg7
S'diningtable'
p236
sa(dp237
g3
(lp238
F89.0
aF191.5
aF178.0
aF209.0
asg5
S'0.499608'
p239
sg7
S'countertop'
p240
sa(dp241
g3
(lp242
F223.5
aF316.5
aF133.0
aF325.0
asg5
S'0.429933'
p243
sg7
S'chair'
p244
sa(dp245
g3
(lp246
F109.5
aF82.5
aF19.0
aF21.0
asg5
S'0.285480'
p247
sg7
S'cup'
p248
saa(lp249
(dp250
g3
(lp251
F81.0
aF136.0
aF124.0
aF92.0
asg5
S'0.710099'
p252
sg7
S'bed'
p253
sa(dp254
g3
(lp255
F175.0
aF53.5
aF36.0
aF23.0
asg5
S'0.408621'
p256
sg7
S'person'
p257
sa(dp258
g3
(lp259
F430.0
aF276.0
aF76.0
aF96.0
asg5
S'0.393610'
p260
sg7
S'wastecontainer'
p261
sa(dp262
g3
(lp263
F67.0
aF139.0
aF132.0
aF152.0
asg5
S'0.363359'
p264
sg7
S'bed'
p265
sa(dp266
g3
(lp267
F273.5
aF162.5
aF73.0
aF83.0
asg5
S'0.343155'
p268
sg7
S'chair'
p269
saa(lp270
(dp271
g3
(lp272
F302.0
aF210.0
aF100.0
aF264.0
asg5
S'0.678557'
p273
sg7
S'chair'
p274
sa(dp275
g3
(lp276
F517.5
aF214.0
aF243.0
aF242.0
asg5
S'0.616418'
p277
sg7
S'chair'
p278
sa(dp279
g3
(lp280
F324.5
aF237.0
aF161.0
aF236.0
asg5
S'0.537489'
p281
sg7
S'diningtable'
p282
sa(dp283
g3
(lp284
F77.5
aF129.0
aF155.0
aF234.0
asg5
S'0.486051'
p285
sg7
S'refrigerator'
p286
sa(dp287
g3
(lp288
F375.0
aF240.0
aF230.0
aF258.0
asg5
S'0.485140'
p289
sg7
S'diningtable'
p290
sa(dp291
g3
(lp292
F303.5
aF105.0
aF73.0
aF60.0
asg5
S'0.459296'
p293
sg7
S'chair'
p294
saa(lp295
(dp296
g3
(lp297
F94.0
aF316.5
aF188.0
aF325.0
asg5
S'0.706046'
p298
sg7
S'chair'
p299
sa(dp300
g3
(lp301
F107.0
aF93.0
aF148.0
aF158.0
asg5
S'0.704533'
p302
sg7
S'door'
p303
sa(dp304
g3
(lp305
F361.0
aF172.5
aF96.0
aF225.0
asg5
S'0.631600'
p306
sg7
S'chair'
p307
sa(dp308
g3
(lp309
F58.5
aF179.5
aF93.0
aF37.0
asg5
S'0.503095'
p310
sg7
S'bowl'
p311
sa(dp312
g3
(lp313
F404.5
aF196.0
aF209.0
aF212.0
asg5
S'0.401212'
p314
sg7
S'diningtable'
p315
sa(dp316
g3
(lp317
F94.5
aF209.5
aF189.0
aF169.0
asg5
S'0.306721'
p318
sg7
S'diningtable'
p319
sa(dp320
g3
(lp321
F22.5
aF90.5
aF45.0
aF127.0
asg5
S'0.303672'
p322
sg7
S'refrigerator'
p323
sa(dp324
g3
(lp325
F370.5
aF136.0
aF163.0
aF178.0
asg5
S'0.253778'
p326
sg7
S'cabinetry'
p327
saa(lp328
(dp329
g3
(lp330
F484.5
aF274.0
aF279.0
aF410.0
asg5
S'0.841393'
p331
sg7
S'sofa'
p332
sa(dp333
g3
(lp334
F338.5
aF154.0
aF83.0
aF136.0
asg5
S'0.342367'
p335
sg7
S'chair'
p336
sa(dp337
g3
(lp338
F474.5
aF200.0
aF103.0
aF120.0
asg5
S'0.282579'
p339
sg7
S'pillow'
p340
saa(lp341
(dp342
g3
(lp343
F319.5
aF321.5
aF633.0
aF277.0
asg5
S'0.791896'
p344
sg7
S'sofa'
p345
sa(dp346
g3
(lp347
F533.5
aF126.0
aF211.0
aF168.0
asg5
S'0.786197'
p348
sg7
S'tvmonitor'
p349
sa(dp350
g3
(lp351
F273.5
aF91.0
aF103.0
aF174.0
asg5
S'0.765009'
p352
sg7
S'pottedplant'
p353
sa(dp354
g3
(lp355
F388.5
aF323.5
aF65.0
aF25.0
asg5
S'0.679025'
p356
sg7
S'remote'
p357
sa(dp358
g3
(lp359
F356.5
aF145.0
aF25.0
aF30.0
asg5
S'0.491541'
p360
sg7
S'pottedplant'
p361
sa(dp362
g3
(lp363
F476.0
aF235.5
aF146.0
aF139.0
asg5
S'0.362789'
p364
sg7
S'coffeetable'
p365
sa(dp366
g3
(lp367
F366.5
aF155.5
aF29.0
aF51.0
asg5
S'0.312138'
p368
sg7
S'pottedplant'
p369
sa(dp370
g3
(lp371
F324.0
aF137.5
aF50.0
aF45.0
asg5
S'0.295145'
p372
sg7
S'pictureframe'
p373
saa(lp374
(dp375
g3
(lp376
F268.5
aF134.0
aF107.0
aF38.0
asg5
S'0.774696'
p377
sg7
S'bowl'
p378
sa(dp379
g3
(lp380
F117.5
aF159.5
aF235.0
aF53.0
asg5
S'0.674897'
p381
sg7
S'sink'
p382
sa(dp383
g3
(lp384
F348.0
aF115.5
aF66.0
aF43.0
asg5
S'0.459554'
p385
sg7
S'cup'
p386
sa(dp387
g3
(lp388
F169.0
aF90.0
aF116.0
aF106.0
asg5
S'0.361740'
p389
sg7
S'tap'
p390
sa(dp391
g3
(lp392
F568.0
aF196.0
aF142.0
aF282.0
asg5
S'0.321016'
p393
sg7
S'cabinetry'
p394
sa(dp395
g3
(lp396
F231.0
aF117.0
aF82.0
aF42.0
asg5
S'0.252750'
p397
sg7
S'bowl'
p398
saa(lp399
(dp400
g3
(lp401
F157.0
aF105.5
aF124.0
aF211.0
asg5
S'0.648869'
p402
sg7
S'bookcase'
p403
sa(dp404
g3
(lp405
F70.0
aF205.0
aF128.0
aF138.0
asg5
S'0.472681'
p406
sg7
S'coffeetable'
p407
sa(dp408
g3
(lp409
F378.5
aF204.5
aF125.0
aF259.0
asg5
S'0.463334'
p410
sg7
S'refrigerator'
p411
sa(dp412
g3
(lp413
F308.0
aF42.5
aF144.0
aF85.0
asg5
S'0.449150'
p414
sg7
S'windowblind'
p415
saa(lp416
(dp417
g3
(lp418
F262.5
aF286.5
aF189.0
aF267.0
asg5
S'0.861616'
p419
sg7
S'chair'
p420
sa(dp421
g3
(lp422
F424.0
aF282.0
aF142.0
aF242.0
asg5
S'0.770853'
p423
sg7
S'chair'
p424
sa(dp425
g3
(lp426
F448.5
aF276.5
aF109.0
aF249.0
asg5
S'0.765259'
p427
sg7
S'chair'
p428
sa(dp429
g3
(lp430
F229.5
aF286.0
aF149.0
aF318.0
asg5
S'0.676397'
p431
sg7
S'chair'
p432
sa(dp433
g3
(lp434
F269.0
aF151.5
aF44.0
aF43.0
asg5
S'0.666443'
p435
sg7
S'cup'
p436
sa(dp437
g3
(lp438
F327.0
aF178.0
aF324.0
aF98.0
asg5
S'0.600672'
p439
sg7
S'diningtable'
p440
sa(dp441
g3
(lp442
F331.5
aF88.5
aF19.0
aF63.0
asg5
S'0.506194'
p443
sg7
S'bottle'
p444
sa(dp445
g3
(lp446
F505.0
aF133.5
aF140.0
aF141.0
asg5
S'0.424704'
p447
sg7
S'cabinetry'
p448
sa(dp449
g3
(lp450
F556.5
aF172.5
aF135.0
aF163.0
asg5
S'0.420201'
p451
sg7
S'chair'
p452
sa(dp453
g3
(lp454
F508.0
aF159.0
aF94.0
aF146.0
asg5
S'0.402742'
p455
sg7
S'chair'
p456
sa(dp457
g3
(lp458
F517.0
aF172.0
aF78.0
aF114.0
asg5
S'0.384535'
p459
sg7
S'chair'
p460
sa(dp461
g3
(lp462
F606.5
aF174.0
aF49.0
aF122.0
asg5
S'0.268141'
p463
sg7
S'chair'
p464
sa(dp465
g3
(lp466
F475.5
aF96.0
aF27.0
aF48.0
asg5
S'0.250874'
p467
sg7
S'chair'
p468
saa(lp469
(dp470
g3
(lp471
F518.0
aF180.0
aF242.0
aF84.0
asg5
S'0.553823'
p472
sg7
S'sink'
p473
sa(dp474
g3
(lp475
F275.5
aF429.5
aF141.0
aF99.0
asg5
S'0.314123'
p476
sg7
S'wastecontainer'
p477
sa(dp478
g3
(lp479
F598.0
aF101.5
aF82.0
aF135.0
asg5
S'0.293102'
p480
sg7
S'tap'
p481
saa(lp482
(dp483
g3
(lp484
F530.0
aF359.5
aF126.0
aF221.0
asg5
S'0.533144'
p485
sg7
S'chair'
p486
saa(lp487
(dp488
g3
(lp489
F407.5
aF170.0
aF63.0
aF152.0
asg5
S'0.535987'
p490
sg7
S'refrigerator'
p491
sa(dp492
g3
(lp493
F528.0
aF129.5
aF188.0
aF227.0
asg5
S'0.356081'
p494
sg7
S'refrigerator'
p495
sa(dp496
g3
(lp497
F476.0
aF91.0
aF36.0
aF86.0
asg5
S'0.280955'
p498
sg7
S'bottle'
p499
saa(lp500
a(lp501
(dp502
g3
(lp503
F526.5
aF161.0
aF105.0
aF200.0
asg5
S'0.720733'
p504
sg7
S'chair'
p505
sa(dp506
g3
(lp507
F110.0
aF310.0
aF190.0
aF322.0
asg5
S'0.654364'
p508
sg7
S'chair'
p509
sa(dp510
g3
(lp511
F171.5
aF274.5
aF337.0
aF359.0
asg5
S'0.633977'
p512
sg7
S'diningtable'
p513
sa(dp514
g3
(lp515
F601.5
aF200.0
aF75.0
aF160.0
asg5
S'0.573717'
p516
sg7
S'sofa'
p517
sa(dp518
g3
(lp519
F559.5
aF62.5
aF97.0
aF91.0
asg5
S'0.426336'
p520
sg7
S'pottedplant'
p521
sa(dp522
g3
(lp523
F530.5
aF163.0
aF109.0
aF128.0
asg5
S'0.336040'
p524
sg7
S'chair'
p525
sa(dp526
g3
(lp527
F346.5
aF126.5
aF19.0
aF63.0
asg5
S'0.256416'
p528
sg7
S'chair'
p529
saa(lp530
(dp531
g3
(lp532
F402.0
aF139.0
aF86.0
aF248.0
asg5
S'0.739925'
p533
sg7
S'bottle'
p534
sa(dp535
g3
(lp536
F139.5
aF236.5
aF279.0
aF465.0
asg5
S'0.499644'
p537
sg7
S'refrigerator'
p538
saa(lp539
(dp540
g3
(lp541
F533.5
aF177.5
aF119.0
aF177.0
asg5
S'0.841719'
p542
sg7
S'chair'
p543
sa(dp544
g3
(lp545
F258.5
aF208.0
aF417.0
aF186.0
asg5
S'0.620831'
p546
sg7
S'sofa'
p547
sa(dp548
g3
(lp549
F29.5
aF54.0
aF53.0
aF74.0
asg5
S'0.542316'
p550
sg7
S'pottedplant'
p551
sa(dp552
g3
(lp553
F235.0
aF91.5
aF112.0
aF105.0
asg5
S'0.385547'
p554
sg7
S'tvmonitor'
p555
sa(dp556
g3
(lp557
F14.5
aF56.0
aF29.0
aF86.0
asg5
S'0.319877'
p558
sg7
S'pottedplant'
p559
sa(dp560
g3
(lp561
F40.0
aF168.5
aF80.0
aF211.0
asg5
S'0.316454'
p562
sg7
S'sofa'
p563
sa(dp564
g3
(lp565
F518.5
aF189.0
aF145.0
aF178.0
asg5
S'0.306937'
p566
sg7
S'chair'
p567
sa(dp568
g3
(lp569
F518.5
aF39.5
aF95.0
aF73.0
asg5
S'0.277761'
p570
sg7
S'tvmonitor'
p571
sa(dp572
g3
(lp573
F71.5
aF194.0
aF119.0
aF192.0
asg5
S'0.275912'
p574
sg7
S'chair'
p575
sa(dp576
g3
(lp577
F234.0
aF88.5
aF124.0
aF81.0
asg5
S'0.275542'
p578
sg7
S'tvmonitor'
p579
saa(lp580
(dp581
g3
(lp582
F191.0
aF209.0
aF250.0
aF246.0
asg5
S'0.707666'
p583
sg7
S'refrigerator'
p584
sa(dp585
g3
(lp586
F131.0
aF352.5
aF262.0
aF253.0
asg5
S'0.536102'
p587
sg7
S'oven'
p588
sa(dp589
g3
(lp590
F571.5
aF207.0
aF135.0
aF200.0
asg5
S'0.450818'
p591
sg7
S'chair'
p592
sa(dp593
g3
(lp594
F570.5
aF49.0
aF103.0
aF80.0
asg5
S'0.334868'
p595
sg7
S'pottedplant'
p596
sa(dp597
g3
(lp598
F452.5
aF153.0
aF185.0
aF154.0
asg5
S'0.332695'
p599
sg7
S'refrigerator'
p600
sa(dp601
g3
(lp602
F325.0
aF139.5
aF42.0
aF79.0
asg5
S'0.256941'
p603
sg7
S'chair'
p604
saa(lp605
(dp606
g3
(lp607
F119.5
aF152.5
aF211.0
aF49.0
asg5
S'0.685773'
p608
sg7
S'sink'
p609
sa(dp610
g3
(lp611
F11.5
aF122.5
aF23.0
aF101.0
asg5
S'0.419682'
p612
sg7
S'bottle'
p613
sa(dp614
g3
(lp615
F315.0
aF99.0
aF48.0
aF66.0
asg5
S'0.417154'
p616
sg7
S'cup'
p617
sa(dp618
g3
(lp619
F576.0
aF174.0
aF114.0
aF290.0
asg5
S'0.326669'
p620
sg7
S'cabinetry'
p621
sa(dp622
g3
(lp623
F278.5
aF94.5
aF55.0
aF77.0
asg5
S'0.285873'
p624
sg7
S'cup'
p625
sa(dp626
g3
(lp627
F374.0
aF88.0
aF48.0
aF94.0
asg5
S'0.279499'
p628
sg7
S'bottle'
p629
saa(lp630
(dp631
g3
(lp632
F341.0
aF103.0
aF52.0
aF100.0
asg5
S'0.486727'
p633
sg7
S'bottle'
p634
sa(dp635
g3
(lp636
F471.0
aF129.0
aF214.0
aF198.0
asg5
S'0.272065'
p637
sg7
S'cabinetry'
p638
saa(lp639
(dp640
g3
(lp641
F300.0
aF280.5
aF598.0
aF385.0
asg5
S'0.936491'
p642
sg7
S'bed'
p643
sa(dp644
g3
(lp645
F368.0
aF132.0
aF64.0
aF38.0
asg5
S'0.654368'
p646
sg7
S'pictureframe'
p647
sa(dp648
g3
(lp649
F225.5
aF136.5
aF53.0
aF33.0
asg5
S'0.374300'
p650
sg7
S'pictureframe'
p651
sa(dp652
g3
(lp653
F230.0
aF161.0
aF82.0
aF40.0
asg5
S'0.369957'
p654
sg7
S'nightstand'
p655
saa(lp656
(dp657
g3
(lp658
F283.5
aF282.0
aF475.0
aF394.0
asg5
S'0.862613'
p659
sg7
S'sofa'
p660
sa(dp661
g3
(lp662
F80.5
aF134.5
aF73.0
aF119.0
asg5
S'0.606796'
p663
sg7
S'chair'
p664
sa(dp665
g3
(lp666
F123.5
aF138.0
aF93.0
aF116.0
asg5
S'0.464106'
p667
sg7
S'chair'
p668
sa(dp669
g3
(lp670
F202.0
aF235.5
aF48.0
aF21.0
asg5
S'0.440775'
p671
sg7
S'remote'
p672
sa(dp673
g3
(lp674
F215.5
aF127.0
aF63.0
aF94.0
asg5
S'0.375377'
p675
sg7
S'chair'
p676
sa(dp677
g3
(lp678
F188.0
aF236.0
aF58.0
aF32.0
asg5
S'0.292862'
p679
sg7
S'remote'
p680
sa(dp681
g3
(lp682
F90.0
aF137.0
aF130.0
aF182.0
asg5
S'0.284735'
p683
sg7
S'chair'
p684
sa(dp685
g3
(lp686
F168.0
aF135.5
aF86.0
aF95.0
asg5
S'0.262397'
p687
sg7
S'chair'
p688
sa(dp689
g3
(lp690
F565.5
aF160.0
aF147.0
aF170.0
asg5
S'0.252112'
p691
sg7
S'refrigerator'
p692
saa(lp693
(dp694
g3
(lp695
F521.5
aF304.5
aF233.0
aF347.0
asg5
S'0.361779'
p696
sg7
S'refrigerator'
p697
saa(lp698
(dp699
g3
(lp700
F557.0
aF323.5
aF154.0
aF309.0
asg5
S'0.523154'
p701
sg7
S'chair'
p702
sa(dp703
g3
(lp704
F111.0
aF286.0
aF222.0
aF366.0
asg5
S'0.466671'
p705
sg7
S'refrigerator'
p706
sa(dp707
g3
(lp708
F87.0
aF99.5
aF58.0
aF47.0
asg5
S'0.444660'
p709
sg7
S'cup'
p710
sa(dp711
g3
(lp712
F130.0
aF55.0
aF42.0
aF108.0
asg5
S'0.431028'
p713
sg7
S'bottle'
p714
sa(dp715
g3
(lp716
F32.0
aF112.5
aF62.0
aF37.0
asg5
S'0.403386'
p717
sg7
S'bowl'
p718
saa(lp719
(dp720
g3
(lp721
F111.0
aF158.5
aF214.0
aF299.0
asg5
S'0.526273'
p722
sg7
S'tvmonitor'
p723
sa(dp724
g3
(lp725
F239.5
aF291.5
aF65.0
aF81.0
asg5
S'0.468295'
p726
sg7
S'book'
p727
sa(dp728
g3
(lp729
F67.0
aF354.5
aF134.0
aF239.0
asg5
S'0.290283'
p730
sg7
S'oven'
p731
sa(dp732
g3
(lp733
F372.5
aF270.0
aF51.0
aF54.0
asg5
S'0.269495'
p734
sg7
S'pottedplant'
p735
sa(dp736
g3
(lp737
F374.0
aF357.5
aF90.0
aF55.0
asg5
S'0.258227'
p738
sg7
S'book'
p739
saa(lp740
(dp741
g3
(lp742
F221.0
aF270.0
aF442.0
aF356.0
asg5
S'0.870608'
p743
sg7
S'bed'
p744
sa(dp745
g3
(lp746
F515.5
aF208.5
aF91.0
aF119.0
asg5
S'0.432110'
p747
sg7
S'nightstand'
p748
sa(dp749
g3
(lp750
F516.5
aF153.5
aF39.0
aF37.0
asg5
S'0.286726'
p751
sg7
S'pictureframe'
p752
saa(lp753
(dp754
g3
(lp755
F128.5
aF271.0
aF109.0
aF124.0
asg5
S'0.533443'
p756
sg7
S'pottedplant'
p757
sa(dp758
g3
(lp759
F119.0
aF320.0
aF34.0
aF42.0
asg5
S'0.486235'
p760
sg7
S'vase'
p761
sa(dp762
g3
(lp763
F142.5
aF381.5
aF111.0
aF37.0
asg5
S'0.405094'
p764
sg7
S'book'
p765
sa(dp766
g3
(lp767
F121.0
aF280.0
aF76.0
aF70.0
asg5
S'0.374484'
p768
sg7
S'pottedplant'
p769
sa(dp770
g3
(lp771
F238.5
aF349.0
aF57.0
aF100.0
asg5
S'0.359365'
p772
sg7
S'bottle'
p773
sa(dp774
g3
(lp775
F126.5
aF312.5
aF51.0
aF67.0
asg5
S'0.351264'
p776
sg7
S'vase'
p777
sa(dp778
g3
(lp779
F501.5
aF396.5
aF95.0
aF71.0
asg5
S'0.265792'
p780
sg7
S'book'
p781
saa(lp782
(dp783
g3
(lp784
F436.5
aF94.5
aF103.0
aF175.0
asg5
S'0.869161'
p785
sg7
S'pottedplant'
p786
sa(dp787
g3
(lp788
F76.5
aF301.0
aF153.0
aF356.0
asg5
S'0.864148'
p789
sg7
S'sofa'
p790
sa(dp791
g3
(lp792
F566.0
aF161.5
aF146.0
aF187.0
asg5
S'0.710095'
p793
sg7
S'tvmonitor'
p794
sa(dp795
g3
(lp796
F565.5
aF224.5
aF147.0
aF61.0
asg5
S'0.431013'
p797
sg7
S'keyboard'
p798
sa(dp799
g3
(lp800
F480.5
aF314.0
aF175.0
aF194.0
asg5
S'0.420287'
p801
sg7
S'coffeetable'
p802
sa(dp803
g3
(lp804
F63.5
aF202.5
aF107.0
aF115.0
asg5
S'0.340144'
p805
sg7
S'pillow'
p806
sa(dp807
g3
(lp808
F457.0
aF213.5
aF38.0
aF33.0
asg5
S'0.257235'
p809
sg7
S'cup'
p810
saa(lp811
(dp812
g3
(lp813
F121.0
aF248.5
aF142.0
aF227.0
asg5
S'0.809926'
p814
sg7
S'chair'
p815
sa(dp816
g3
(lp817
F309.0
aF263.0
aF128.0
aF232.0
asg5
S'0.784999'
p818
sg7
S'chair'
p819
sa(dp820
g3
(lp821
F555.0
aF169.0
aF100.0
aF164.0
asg5
S'0.595409'
p822
sg7
S'chair'
p823
sa(dp824
g3
(lp825
F518.5
aF157.5
aF125.0
aF125.0
asg5
S'0.478472'
p826
sg7
S'diningtable'
p827
sa(dp828
g3
(lp829
F218.0
aF244.5
aF132.0
aF207.0
asg5
S'0.456562'
p830
sg7
S'diningtable'
p831
sa(dp832
g3
(lp833
F522.5
aF168.0
aF73.0
aF132.0
asg5
S'0.389888'
p834
sg7
S'chair'
p835
sa(dp836
g3
(lp837
F221.0
aF240.0
aF328.0
aF218.0
asg5
S'0.378174'
p838
sg7
S'diningtable'
p839
sa(dp840
g3
(lp841
F416.5
aF166.0
aF59.0
aF100.0
asg5
S'0.311403'
p842
sg7
S'chair'
p843
sa(dp844
g3
(lp845
F472.5
aF172.5
aF135.0
aF141.0
asg5
S'0.304130'
p846
sg7
S'diningtable'
p847
sa(dp848
g3
(lp849
F551.0
aF102.0
aF62.0
aF42.0
asg5
S'0.285392'
p850
sg7
S'chair'
p851
saa(lp852
(dp853
g3
(lp854
F40.5
aF229.5
aF79.0
aF213.0
asg5
S'0.287470'
p855
sg7
S'chair'
p856
saa(lp857
(dp858
g3
(lp859
F167.5
aF286.5
aF335.0
aF375.0
asg5
S'0.770797'
p860
sg7
S'sofa'
p861
sa(dp862
g3
(lp863
F611.0
aF98.0
aF56.0
aF188.0
asg5
S'0.480055'
p864
sg7
S'pottedplant'
p865
sa(dp866
g3
(lp867
F89.5
aF387.5
aF173.0
aF179.0
asg5
S'0.297908'
p868
sg7
S'chair'
p869
sa(dp870
g3
(lp871
F207.0
aF105.0
aF84.0
aF66.0
asg5
S'0.262165'
p872
sg7
S'chair'
p873
saa(lp874
(dp875
g3
(lp876
F80.0
aF279.0
aF110.0
aF130.0
asg5
S'0.450679'
p877
sg7
S'pottedplant'
p878
sa(dp879
g3
(lp880
F103.5
aF391.5
aF93.0
aF37.0
asg5
S'0.412792'
p881
sg7
S'book'
p882
sa(dp883
g3
(lp884
F74.0
aF280.0
aF98.0
aF74.0
asg5
S'0.386980'
p885
sg7
S'pottedplant'
p886
sa(dp887
g3
(lp888
F72.0
aF309.0
aF50.0
aF86.0
asg5
S'0.377953'
p889
sg7
S'vase'
p890
sa(dp891
g3
(lp892
F571.5
aF272.0
aF113.0
aF68.0
asg5
S'0.372790'
p893
sg7
S'book'
p894
sa(dp895
g3
(lp896
F473.5
aF411.0
aF97.0
aF68.0
asg5
S'0.332800'
p897
sg7
S'book'
p898
saa(lp899
(dp900
g3
(lp901
F569.0
aF337.0
aF124.0
aF284.0
asg5
S'0.524567'
p902
sg7
S'chair'
p903
sa(dp904
g3
(lp905
F379.5
aF178.0
aF255.0
aF194.0
asg5
S'0.489387'
p906
sg7
S'countertop'
p907
sa(dp908
g3
(lp909
F138.5
aF157.5
aF67.0
aF97.0
asg5
S'0.315143'
p910
sg7
S'chair'
p911
sa(dp912
g3
(lp913
F574.0
aF197.0
aF102.0
aF74.0
asg5
S'0.264715'
p914
sg7
S'diningtable'
p915
saa(lp916
(dp917
g3
(lp918
F477.0
aF202.0
aF248.0
aF228.0
asg5
S'0.485044'
p919
sg7
S'countertop'
p920
sa(dp921
g3
(lp922
F335.5
aF236.5
aF51.0
aF69.0
asg5
S'0.328650'
p923
sg7
S'wastecontainer'
p924
sa(dp925
g3
(lp926
F70.0
aF27.0
aF60.0
aF54.0
asg5
S'0.280358'
p927
sg7
S'book'
p928
sa(dp929
g3
(lp930
F75.0
aF125.5
aF84.0
aF137.0
asg5
S'0.263161'
p931
sg7
S'bed'
p932
sa(dp933
g3
(lp934
F237.5
aF158.5
aF57.0
aF81.0
asg5
S'0.255882'
p935
sg7
S'chair'
p936
saa(lp937
(dp938
g3
(lp939
F217.0
aF55.5
aF34.0
aF23.0
asg5
S'0.497034'
p940
sg7
S'person'
p941
sa(dp942
g3
(lp943
F155.5
aF155.5
aF113.0
aF193.0
asg5
S'0.490569'
p944
sg7
S'refrigerator'
p945
sa(dp946
g3
(lp947
F70.0
aF131.0
aF140.0
aF106.0
asg5
S'0.438210'
p948
sg7
S'bed'
p949
sa(dp950
g3
(lp951
F281.5
aF158.0
aF51.0
aF86.0
asg5
S'0.301474'
p952
sg7
S'chair'
p953
saa(lp954
(dp955
g3
(lp956
F424.5
aF303.0
aF429.0
aF352.0
asg5
S'0.618909'
p957
sg7
S'sofa'
p958
sa(dp959
g3
(lp960
F229.0
aF352.0
aF206.0
aF206.0
asg5
S'0.552256'
p961
sg7
S'backpack'
p962
sa(dp963
g3
(lp964
F276.0
aF138.5
aF134.0
aF127.0
asg5
S'0.360461'
p965
sg7
S'chair'
p966
sa(dp967
g3
(lp968
F266.0
aF338.0
aF468.0
aF282.0
asg5
S'0.279172'
p969
sg7
S'chair'
p970
sa(dp971
g3
(lp972
F425.5
aF194.0
aF153.0
aF76.0
asg5
S'0.278384'
p973
sg7
S'pillow'
p974
sa(dp975
g3
(lp976
F228.0
aF275.5
aF456.0
aF407.0
asg5
S'0.259917'
p977
sg7
S'toilet'
p978
saa(lp979
(dp980
g3
(lp981
F64.5
aF174.0
aF99.0
aF140.0
asg5
S'0.608093'
p982
sg7
S'chair'
p983
sa(dp984
g3
(lp985
F507.5
aF306.0
aF263.0
aF346.0
asg5
S'0.583354'
p986
sg7
S'sofa'
p987
sa(dp988
g3
(lp989
F372.0
aF340.0
aF500.0
aF278.0
asg5
S'0.453748'
p990
sg7
S'chair'
p991
sa(dp992
g3
(lp993
F312.0
aF83.5
aF46.0
aF31.0
asg5
S'0.442548'
p994
sg7
S'chair'
p995
sa(dp996
g3
(lp997
F121.0
aF165.5
aF64.0
aF125.0
asg5
S'0.392649'
p998
sg7
S'chair'
p999
sa(dp1000
g3
(lp1001
F376.5
aF350.0
aF179.0
aF240.0
asg5
S'0.374395'
p1002
sg7
S'backpack'
p1003
sa(dp1004
g3
(lp1005
F411.5
aF135.0
aF117.0
aF112.0
asg5
S'0.366008'
p1006
sg7
S'chair'
p1007
sa(dp1008
g3
(lp1009
F73.0
aF166.5
aF126.0
aF167.0
asg5
S'0.351905'
p1010
sg7
S'diningtable'
p1011
sa(dp1012
g3
(lp1013
F517.5
aF189.5
aF75.0
aF71.0
asg5
S'0.320190'
p1014
sg7
S'pillow'
p1015
sa(dp1016
g3
(lp1017
F517.0
aF287.5
aF170.0
aF209.0
asg5
S'0.305575'
p1018
sg7
S'sofa'
p1019
sa(dp1020
g3
(lp1021
F557.5
aF197.0
aF129.0
aF64.0
asg5
S'0.288370'
p1022
sg7
S'pillow'
p1023
sa(dp1024
g3
(lp1025
F33.5
aF171.0
aF41.0
aF152.0
asg5
S'0.287597'
p1026
sg7
S'chair'
p1027
sa(dp1028
g3
(lp1029
F407.0
aF139.0
aF72.0
aF108.0
asg5
S'0.280312'
p1030
sg7
S'chair'
p1031
sa(dp1032
g3
(lp1033
F381.0
aF130.0
aF130.0
aF110.0
asg5
S'0.257117'
p1034
sg7
S'diningtable'
p1035
saa(lp1036
(dp1037
g3
(lp1038
F359.5
aF92.5
aF107.0
aF91.0
asg5
S'0.667867'
p1039
sg7
S'tvmonitor'
p1040
sa(dp1041
g3
(lp1042
F169.0
aF273.0
aF316.0
aF302.0
asg5
S'0.657345'
p1043
sg7
S'chair'
p1044
sa(dp1045
g3
(lp1046
F202.0
aF67.0
aF88.0
aF134.0
asg5
S'0.588823'
p1047
sg7
S'pottedplant'
p1048
sa(dp1049
g3
(lp1050
F120.5
aF165.5
aF221.0
aF157.0
asg5
S'0.331138'
p1051
sg7
S'chair'
p1052
saa(lp1053
(dp1054
g3
(lp1055
F419.5
aF288.0
aF439.0
aF334.0
asg5
S'0.737236'
p1056
sg7
S'sofa'
p1057
sa(dp1058
g3
(lp1059
F258.5
aF135.0
aF79.0
aF114.0
asg5
S'0.581617'
p1060
sg7
S'chair'
p1061
sa(dp1062
g3
(lp1063
F180.5
aF280.5
aF361.0
aF393.0
asg5
S'0.556317'
p1064
sg7
S'chair'
p1065
sa(dp1066
g3
(lp1067
F373.5
aF239.0
aF73.0
aF36.0
asg5
S'0.537004'
p1068
sg7
S'remote'
p1069
sa(dp1070
g3
(lp1071
F423.5
aF238.0
aF157.0
aF84.0
asg5
S'0.421205'
p1072
sg7
S'pillow'
p1073
sa(dp1074
g3
(lp1075
F372.5
aF122.0
aF59.0
aF90.0
asg5
S'0.346867'
p1076
sg7
S'chair'
p1077
saa(lp1078
(dp1079
g3
(lp1080
F125.5
aF245.0
aF231.0
aF366.0
asg5
S'0.395208'
p1081
sg7
S'refrigerator'
p1082
saa(lp1083
(dp1084
g3
(lp1085
F267.0
aF285.0
aF480.0
aF362.0
asg5
S'0.843951'
p1086
sg7
S'sofa'
p1087
sa(dp1088
g3
(lp1089
F72.0
aF139.5
aF86.0
aF117.0
asg5
S'0.684118'
p1090
sg7
S'chair'
p1091
sa(dp1092
g3
(lp1093
F201.0
aF250.0
aF78.0
aF32.0
asg5
S'0.644244'
p1094
sg7
S'remote'
p1095
sa(dp1096
g3
(lp1097
F281.5
aF236.5
aF157.0
aF95.0
asg5
S'0.469166'
p1098
sg7
S'pillow'
p1099
sa(dp1100
g3
(lp1101
F173.0
aF132.0
aF58.0
aF84.0
asg5
S'0.402527'
p1102
sg7
S'chair'
p1103
sa(dp1104
g3
(lp1105
F379.0
aF201.5
aF98.0
aF135.0
asg5
S'0.399261'
p1106
sg7
S'pillow'
p1107
sa(dp1108
g3
(lp1109
F565.0
aF158.0
aF148.0
aF178.0
asg5
S'0.396334'
p1110
sg7
S'refrigerator'
p1111
sa(dp1112
g3
(lp1113
F123.0
aF133.0
aF104.0
aF82.0
asg5
S'0.344975'
p1114
sg7
S'diningtable'
p1115
sa(dp1116
g3
(lp1117
F75.5
aF164.0
aF143.0
aF164.0
asg5
S'0.340024'
p1118
sg7
S'diningtable'
p1119
sa(dp1120
g3
(lp1121
F108.0
aF298.5
aF186.0
aF361.0
asg5
S'0.298137'
p1122
sg7
S'chair'
p1123
saa(lp1124
(dp1125
g3
(lp1126
F110.0
aF286.0
aF220.0
aF376.0
asg5
S'0.598137'
p1127
sg7
S'refrigerator'
p1128
sa(dp1129
g3
(lp1130
F565.0
aF131.5
aF118.0
aF227.0
asg5
S'0.288888'
p1131
sg7
S'chair'
p1132
saa(lp1133
(dp1134
g3
(lp1135
F322.5
aF164.5
aF75.0
aF135.0
asg5
S'0.683264'
p1136
sg7
S'chair'
p1137
sa(dp1138
g3
(lp1139
F495.5
aF284.0
aF273.0
aF368.0
asg5
S'0.616908'
p1140
sg7
S'toilet'
p1141
sa(dp1142
g3
(lp1143
F87.5
aF174.0
aF143.0
aF246.0
asg5
S'0.560036'
p1144
sg7
S'countertop'
p1145
sa(dp1146
g3
(lp1147
F368.0
aF95.0
aF20.0
aF38.0
asg5
S'0.414083'
p1148
sg7
S'bottle'
p1149
sa(dp1150
g3
(lp1151
F212.5
aF95.5
aF185.0
aF171.0
asg5
S'0.308908'
p1152
sg7
S'cabinetry'
p1153
sa(dp1154
g3
(lp1155
F76.0
aF174.5
aF144.0
aF219.0
asg5
S'0.283587'
p1156
sg7
S'refrigerator'
p1157
saa(lp1158
(dp1159
g3
(lp1160
F571.0
aF87.0
aF58.0
aF86.0
asg5
S'0.481664'
p1161
sg7
S'bottle'
p1162
sa(dp1163
g3
(lp1164
F316.5
aF240.5
aF461.0
aF461.0
asg5
S'0.327573'
p1165
sg7
S'refrigerator'
p1166
sa(dp1167
g3
(lp1168
F405.0
aF401.0
aF140.0
aF144.0
asg5
S'0.290803'
p1169
sg7
S'wastecontainer'
p1170
saa(lp1171
(dp1172
g3
(lp1173
F265.5
aF287.0
aF459.0
aF368.0
asg5
S'0.839692'
p1174
sg7
S'sofa'
p1175
sa(dp1176
g3
(lp1177
F72.5
aF134.5
aF83.0
aF125.0
asg5
S'0.697611'
p1178
sg7
S'chair'
p1179
sa(dp1180
g3
(lp1181
F204.0
aF243.0
aF68.0
aF34.0
asg5
S'0.634198'
p1182
sg7
S'remote'
p1183
sa(dp1184
g3
(lp1185
F270.0
aF234.0
aF170.0
aF76.0
asg5
S'0.431206'
p1186
sg7
S'pillow'
p1187
sa(dp1188
g3
(lp1189
F162.5
aF126.0
aF67.0
aF76.0
asg5
S'0.385118'
p1190
sg7
S'chair'
p1191
sa(dp1192
g3
(lp1193
F375.5
aF197.5
aF109.0
aF115.0
asg5
S'0.317325'
p1194
sg7
S'pillow'
p1195
sa(dp1196
g3
(lp1197
F412.0
aF175.0
aF54.0
aF62.0
asg5
S'0.278028'
p1198
sg7
S'pillow'
p1199
saa(lp1200
(dp1201
g3
(lp1202
F234.5
aF173.5
aF89.0
aF133.0
asg5
S'0.788522'
p1203
sg7
S'chair'
p1204
sa(dp1205
g3
(lp1206
F132.0
aF175.5
aF74.0
aF139.0
asg5
S'0.730814'
p1207
sg7
S'chair'
p1208
sa(dp1209
g3
(lp1210
F178.5
aF177.0
aF149.0
aF136.0
asg5
S'0.659045'
p1211
sg7
S'diningtable'
p1212
sa(dp1213
g3
(lp1214
F565.0
aF269.5
aF148.0
aF227.0
asg5
S'0.421262'
p1215
sg7
S'sofa'
p1216
sa(dp1217
g3
(lp1218
F471.0
aF348.5
aF194.0
aF235.0
asg5
S'0.411606'
p1219
sg7
S'backpack'
p1220
sa(dp1221
g3
(lp1222
F471.5
aF131.0
aF99.0
aF110.0
asg5
S'0.300086'
p1223
sg7
S'chair'
p1224
sa(dp1225
g3
(lp1226
F613.5
aF198.0
aF41.0
aF58.0
asg5
S'0.270063'
p1227
sg7
S'pillow'
p1228
sa(dp1229
g3
(lp1230
F458.5
aF277.0
aF315.0
aF378.0
asg5
S'0.253207'
p1231
sg7
S'chair'
p1232
saa(lp1233
(dp1234
g3
(lp1235
F461.0
aF281.0
aF356.0
aF374.0
asg5
S'0.712861'
p1236
sg7
S'refrigerator'
p1237
sa(dp1238
g3
(lp1239
F223.5
aF55.0
aF243.0
aF110.0
asg5
S'0.319139'
p1240
sg7
S'windowblind'
p1241
saa(lp1242
(dp1243
g3
(lp1244
F66.5
aF247.0
aF119.0
aF94.0
asg5
S'0.665166'
p1245
sg7
S'chair'
p1246
sa(dp1247
g3
(lp1248
F165.0
aF247.5
aF274.0
aF101.0
asg5
S'0.471159'
p1249
sg7
S'diningtable'
p1250
sa(dp1251
g3
(lp1252
F382.0
aF139.0
aF46.0
aF130.0
asg5
S'0.452562'
p1253
sg7
S'toothbrush'
p1254
sa(dp1255
g3
(lp1256
F449.5
aF266.5
aF73.0
aF69.0
asg5
S'0.312791'
p1257
sg7
S'cup'
p1258
sa(dp1259
g3
(lp1260
F320.5
aF343.5
aF603.0
aF271.0
asg5
S'0.285083'
p1261
sg7
S'diningtable'
p1262
sa(dp1263
g3
(lp1264
F65.0
aF317.0
aF110.0
aF160.0
asg5
S'0.268750'
p1265
sg7
S'chair'
p1266
saa(lp1267
(dp1268
g3
(lp1269
F323.5
aF190.5
aF175.0
aF209.0
asg5
S'0.579474'
p1270
sg7
S'refrigerator'
p1271
sa(dp1272
g3
(lp1273
F584.0
aF188.5
aF80.0
aF157.0
asg5
S'0.517205'
p1274
sg7
S'chair'
p1275
sa(dp1276
g3
(lp1277
F84.5
aF163.5
aF157.0
aF229.0
asg5
S'0.326107'
p1278
sg7
S'refrigerator'
p1279
saa(lp1280
(dp1281
g3
(lp1282
F241.5
aF276.0
aF473.0
aF360.0
asg5
S'0.848061'
p1283
sg7
S'bed'
p1284
sa(dp1285
g3
(lp1286
F572.5
aF213.0
aF115.0
aF128.0
asg5
S'0.595493'
p1287
sg7
S'nightstand'
p1288
sa(dp1289
g3
(lp1290
F551.5
aF58.5
aF71.0
aF55.0
asg5
S'0.383060'
p1291
sg7
S'person'
p1292
sa(dp1293
g3
(lp1294
F178.5
aF157.5
aF79.0
aF41.0
asg5
S'0.344821'
p1295
sg7
S'nightstand'
p1296
sa(dp1297
g3
(lp1298
F574.0
aF152.5
aF44.0
aF37.0
asg5
S'0.330341'
p1299
sg7
S'pictureframe'
p1300
sa(dp1301
g3
(lp1302
F176.5
aF136.5
aF51.0
aF27.0
asg5
S'0.253355'
p1303
sg7
S'pictureframe'
p1304
saa(lp1305
(dp1306
g3
(lp1307
F563.5
aF344.5
aF147.0
aF265.0
asg5
S'0.704756'
p1308
sg7
S'diningtable'
p1309
sa(dp1310
g3
(lp1311
F178.5
aF96.0
aF53.0
aF60.0
asg5
S'0.450086'
p1312
sg7
S'tap'
p1313
sa(dp1314
g3
(lp1315
F579.0
aF231.0
aF102.0
aF84.0
asg5
S'0.407449'
p1316
sg7
S'chair'
p1317
saa(lp1318
(dp1319
g3
(lp1320
F416.0
aF286.5
aF422.0
aF371.0
asg5
S'0.780272'
p1321
sg7
S'sofa'
p1322
sa(dp1323
g3
(lp1324
F182.5
aF283.5
aF365.0
aF391.0
asg5
S'0.743866'
p1325
sg7
S'chair'
p1326
sa(dp1327
g3
(lp1328
F317.0
aF134.5
aF80.0
aF95.0
asg5
S'0.609371'
p1329
sg7
S'chair'
p1330
sa(dp1331
g3
(lp1332
F353.0
aF125.0
aF48.0
aF96.0
asg5
S'0.397800'
p1333
sg7
S'chair'
p1334
sa(dp1335
g3
(lp1336
F472.0
aF246.5
aF124.0
aF89.0
asg5
S'0.338145'
p1337
sg7
S'pillow'
p1338
sa(dp1339
g3
(lp1340
F268.0
aF135.5
aF78.0
aF79.0
asg5
S'0.319920'
p1341
sg7
S'diningtable'
p1342
sa(dp1343
g3
(lp1344
F510.0
aF265.5
aF138.0
aF141.0
asg5
S'0.291803'
p1345
sg7
S'pillow'
p1346
sa(dp1347
g3
(lp1348
F281.5
aF131.5
aF159.0
aF173.0
asg5
S'0.285667'
p1349
sg7
S'chair'
p1350
saa(lp1351
(dp1352
g3
(lp1353
F68.5
aF348.5
aF131.0
aF261.0
asg5
S'0.467128'
p1354
sg7
S'chair'
p1355
sa(dp1356
g3
(lp1357
F117.0
aF279.5
aF220.0
aF373.0
asg5
S'0.364822'
p1358
sg7
S'chair'
p1359
sa(dp1360
g3
(lp1361
F70.5
aF233.0
aF101.0
aF200.0
asg5
S'0.350580'
p1362
sg7
S'backpack'
p1363
saa(lp1364
(dp1365
g3
(lp1366
F267.5
aF183.0
aF143.0
aF32.0
asg5
S'0.776692'
p1367
sg7
S'chair'
p1368
sa(dp1369
g3
(lp1370
F59.0
aF224.0
aF68.0
aF66.0
asg5
S'0.723936'
p1371
sg7
S'cup'
p1372
sa(dp1373
g3
(lp1374
F261.5
aF341.0
aF499.0
aF260.0
asg5
S'0.619161'
p1375
sg7
S'diningtable'
p1376
sa(dp1377
g3
(lp1378
F497.5
aF158.5
aF169.0
aF173.0
asg5
S'0.522709'
p1379
sg7
S'refrigerator'
p1380
sa(dp1381
g3
(lp1382
F316.5
aF106.0
aF187.0
aF206.0
asg5
S'0.455136'
p1383
sg7
S'refrigerator'
p1384
sa(dp1385
g3
(lp1386
F153.0
aF236.0
aF62.0
aF42.0
asg5
S'0.323463'
p1387
sg7
S'cup'
p1388
saa(lp1389
(dp1390
g3
(lp1391
F305.0
aF285.5
aF442.0
aF349.0
asg5
S'0.888695'
p1392
sg7
S'sofa'
p1393
sa(dp1394
g3
(lp1395
F214.5
aF129.5
aF63.0
aF91.0
asg5
S'0.588726'
p1396
sg7
S'chair'
p1397
sa(dp1398
g3
(lp1399
F122.0
aF300.0
aF242.0
aF352.0
asg5
S'0.581266'
p1400
sg7
S'chair'
p1401
sa(dp1402
g3
(lp1403
F135.5
aF136.0
aF65.0
aF82.0
asg5
S'0.447598'
p1404
sg7
S'chair'
p1405
sa(dp1406
g3
(lp1407
F209.5
aF129.0
aF127.0
aF144.0
asg5
S'0.430453'
p1408
sg7
S'pottedplant'
p1409
sa(dp1410
g3
(lp1411
F370.0
aF241.5
aF102.0
aF81.0
asg5
S'0.403415'
p1412
sg7
S'pillow'
p1413
sa(dp1414
g3
(lp1415
F264.0
aF195.0
aF66.0
aF54.0
asg5
S'0.266013'
p1416
sg7
S'pillow'
p1417
sa(dp1418
g3
(lp1419
F182.5
aF135.5
aF87.0
aF85.0
asg5
S'0.258219'
p1420
sg7
S'diningtable'
p1421
saa(lp1422
(dp1423
g3
(lp1424
F299.0
aF279.0
aF574.0
aF376.0
asg5
S'0.930039'
p1425
sg7
S'bed'
p1426
sa(dp1427
g3
(lp1428
F132.5
aF264.5
aF175.0
aF97.0
asg5
S'0.552314'
p1429
sg7
S'backpack'
p1430
sa(dp1431
g3
(lp1432
F227.5
aF162.0
aF81.0
aF42.0
asg5
S'0.440801'
p1433
sg7
S'nightstand'
p1434
sa(dp1435
g3
(lp1436
F176.0
aF155.0
aF74.0
aF38.0
asg5
S'0.399949'
p1437
sg7
S'heater'
p1438
sa(dp1439
g3
(lp1440
F177.5
aF137.0
aF53.0
aF50.0
asg5
S'0.340766'
p1441
sg7
S'heater'
p1442
sa(dp1443
g3
(lp1444
F230.5
aF139.0
aF45.0
aF32.0
asg5
S'0.287067'
p1445
sg7
S'pictureframe'
p1446
sa(dp1447
g3
(lp1448
F359.5
aF134.5
aF51.0
aF33.0
asg5
S'0.265741'
p1449
sg7
S'pictureframe'
p1450
saa(lp1451
(dp1452
g3
(lp1453
F383.0
aF89.0
aF98.0
aF172.0
asg5
S'0.794246'
p1454
sg7
S'pottedplant'
p1455
sa(dp1456
g3
(lp1457
F552.0
aF161.0
aF174.0
aF302.0
asg5
S'0.739287'
p1458
sg7
S'tvmonitor'
p1459
sa(dp1460
g3
(lp1461
F451.0
aF343.5
aF352.0
aF263.0
asg5
S'0.630522'
p1462
sg7
S'diningtable'
p1463
sa(dp1464
g3
(lp1465
F454.0
aF279.0
aF84.0
aF52.0
asg5
S'0.575326'
p1466
sg7
S'bowl'
p1467
sa(dp1468
g3
(lp1469
F428.0
aF166.0
aF40.0
aF68.0
asg5
S'0.378338'
p1470
sg7
S'pictureframe'
p1471
sa(dp1472
g3
(lp1473
F434.5
aF240.5
aF33.0
aF35.0
asg5
S'0.257921'
p1474
sg7
S'cup'
p1475
saa(lp1476
(dp1477
g3
(lp1478
F421.0
aF90.0
aF118.0
aF174.0
asg5
S'0.728396'
p1479
sg7
S'pottedplant'
p1480
sa(dp1481
g3
(lp1482
F37.5
aF283.0
aF75.0
aF322.0
asg5
S'0.682094'
p1483
sg7
S'sofa'
p1484
sa(dp1485
g3
(lp1486
F465.0
aF343.0
aF330.0
aF270.0
asg5
S'0.545966'
p1487
sg7
S'diningtable'
p1488
sa(dp1489
g3
(lp1490
F558.5
aF162.5
aF161.0
aF223.0
asg5
S'0.515889'
p1491
sg7
S'tvmonitor'
p1492
sa(dp1493
g3
(lp1494
F510.5
aF309.5
aF101.0
aF39.0
asg5
S'0.464414'
p1495
sg7
S'book'
p1496
sa(dp1497
g3
(lp1498
F485.0
aF276.5
aF94.0
aF53.0
asg5
S'0.392438'
p1499
sg7
S'bowl'
p1500
sa(dp1501
g3
(lp1502
F600.5
aF244.0
aF77.0
aF82.0
asg5
S'0.369974'
p1503
sg7
S'laptop'
p1504
sa(dp1505
g3
(lp1506
F456.5
aF97.0
aF69.0
aF180.0
asg5
S'0.299307'
p1507
sg7
S'lamp'
p1508
saa(lp1509
(dp1510
g3
(lp1511
F66.0
aF314.5
aF132.0
aF243.0
asg5
S'0.684243'
p1512
sg7
S'chair'
p1513
sa(dp1514
g3
(lp1515
F301.0
aF174.5
aF48.0
aF157.0
asg5
S'0.601586'
p1516
sg7
S'vase'
p1517
sa(dp1518
g3
(lp1519
F55.5
aF228.0
aF111.0
aF108.0
asg5
S'0.567982'
p1520
sg7
S'chair'
p1521
sa(dp1522
g3
(lp1523
F568.0
aF271.5
aF140.0
aF405.0
asg5
S'0.551441'
p1524
sg7
S'refrigerator'
p1525
sa(dp1526
g3
(lp1527
F307.0
aF273.5
aF490.0
aF137.0
asg5
S'0.397695'
p1528
sg7
S'diningtable'
p1529
sa(dp1530
g3
(lp1531
F331.5
aF400.5
aF389.0
aF145.0
asg5
S'0.302830'
p1532
sg7
S'chair'
p1533
sa(dp1534
g3
(lp1535
F150.0
aF241.0
aF288.0
aF100.0
asg5
S'0.252957'
p1536
sg7
S'book'
p1537
saa(lp1538
(dp1539
g3
(lp1540
F354.5
aF194.0
aF121.0
aF162.0
asg5
S'0.661377'
p1541
sg7
S'chair'
p1542
sa(dp1543
g3
(lp1544
F326.5
aF192.0
aF183.0
aF176.0
asg5
S'0.651619'
p1545
sg7
S'diningtable'
p1546
sa(dp1547
g3
(lp1548
F482.5
aF134.5
aF63.0
aF133.0
asg5
S'0.556269'
p1549
sg7
S'chair'
p1550
sa(dp1551
g3
(lp1552
F364.0
aF191.5
aF114.0
aF155.0
asg5
S'0.530137'
p1553
sg7
S'chair'
p1554
sa(dp1555
g3
(lp1556
F241.5
aF194.5
aF105.0
aF173.0
asg5
S'0.508078'
p1557
sg7
S'chair'
p1558
sa(dp1559
g3
(lp1560
F511.0
aF150.0
aF64.0
aF142.0
asg5
S'0.256938'
p1561
sg7
S'chair'
p1562
sa(dp1563
g3
(lp1564
F478.0
aF95.5
aF128.0
aF149.0
asg5
S'0.253241'
p1565
sg7
S'cabinetry'
p1566
saa(lp1567
(dp1568
g3
(lp1569
F139.5
aF157.5
aF279.0
aF67.0
asg5
S'0.600430'
p1570
sg7
S'sink'
p1571
sa(dp1572
g3
(lp1573
F215.5
aF94.0
aF117.0
aF122.0
asg5
S'0.385225'
p1574
sg7
S'tap'
p1575
sa(dp1576
g3
(lp1577
F357.5
aF117.0
aF55.0
aF44.0
asg5
S'0.383205'
p1578
sg7
S'cup'
p1579
sa(dp1580
g3
(lp1581
F302.0
aF123.0
aF60.0
aF52.0
asg5
S'0.273927'
p1582
sg7
S'bowl'
p1583
saa(lp1584
(dp1585
g3
(lp1586
F224.5
aF241.0
aF127.0
aF222.0
asg5
S'0.851917'
p1587
sg7
S'chair'
p1588
sa(dp1589
g3
(lp1590
F378.0
aF231.0
aF126.0
aF212.0
asg5
S'0.811449'
p1591
sg7
S'chair'
p1592
sa(dp1593
g3
(lp1594
F522.5
aF166.5
aF93.0
aF143.0
asg5
S'0.752864'
p1595
sg7
S'chair'
p1596
sa(dp1597
g3
(lp1598
F315.5
aF227.5
aF257.0
aF223.0
asg5
S'0.737078'
p1599
sg7
S'diningtable'
p1600
sa(dp1601
g3
(lp1602
F242.0
aF231.0
aF124.0
aF214.0
asg5
S'0.706263'
p1603
sg7
S'chair'
p1604
sa(dp1605
g3
(lp1606
F517.5
aF127.0
aF125.0
aF144.0
asg5
S'0.632075'
p1607
sg7
S'cabinetry'
p1608
sa(dp1609
g3
(lp1610
F311.0
aF137.0
aF154.0
aF54.0
asg5
S'0.427094'
p1611
sg7
S'diningtable'
p1612
sa(dp1613
g3
(lp1614
F558.0
aF157.0
aF132.0
aF142.0
asg5
S'0.340147'
p1615
sg7
S'diningtable'
p1616
sa(dp1617
g3
(lp1618
F307.5
aF64.0
aF105.0
aF104.0
asg5
S'0.265961'
p1619
sg7
S'door'
p1620
saa(lp1621
(dp1622
g3
(lp1623
F424.0
aF252.0
aF124.0
aF252.0
asg5
S'0.741752'
p1624
sg7
S'chair'
p1625
sa(dp1626
g3
(lp1627
F434.5
aF242.5
aF123.0
aF201.0
asg5
S'0.702139'
p1628
sg7
S'chair'
p1629
sa(dp1630
g3
(lp1631
F512.0
aF241.0
aF226.0
aF236.0
asg5
S'0.655770'
p1632
sg7
S'diningtable'
p1633
sa(dp1634
g3
(lp1635
F576.5
aF271.0
aF123.0
aF200.0
asg5
S'0.625771'
p1636
sg7
S'chair'
p1637
sa(dp1638
g3
(lp1639
F73.5
aF304.5
aF143.0
aF329.0
asg5
S'0.463671'
p1640
sg7
S'refrigerator'
p1641
sa(dp1642
g3
(lp1643
F73.5
aF280.5
aF147.0
aF397.0
asg5
S'0.332659'
p1644
sg7
S'oven'
p1645
sa(dp1646
g3
(lp1647
F510.5
aF66.5
aF129.0
aF105.0
asg5
S'0.299166'
p1648
sg7
S'door'
p1649
sa(dp1650
g3
(lp1651
F600.5
aF277.0
aF67.0
aF240.0
asg5
S'0.297665'
p1652
sg7
S'chair'
p1653
sa(dp1654
g3
(lp1655
F272.5
aF122.5
aF219.0
aF213.0
asg5
S'0.283256'
p1656
sg7
S'cabinetry'
p1657
sa(dp1658
g3
(lp1659
F594.0
aF88.5
aF44.0
aF95.0
asg5
S'0.258286'
p1660
sg7
S'refrigerator'
p1661
saa(lp1662
(dp1663
g3
(lp1664
F139.5
aF274.5
aF277.0
aF409.0
asg5
S'0.695876'
p1665
sg7
S'chair'
p1666
sa(dp1667
g3
(lp1668
F136.0
aF164.0
aF272.0
aF134.0
asg5
S'0.333591'
p1669
sg7
S'chair'
p1670
sa(dp1671
g3
(lp1672
F469.0
aF174.0
aF168.0
aF224.0
asg5
S'0.274440'
p1673
sg7
S'refrigerator'
p1674
sa(dp1675
g3
(lp1676
F271.0
aF122.0
aF96.0
aF220.0
asg5
S'0.251675'
p1677
sg7
S'chair'
p1678
saa(lp1679
(dp1680
g3
(lp1681
F110.0
aF100.0
aF148.0
aF148.0
asg5
S'0.708856'
p1682
sg7
S'tvmonitor'
p1683
sa(dp1684
g3
(lp1685
F286.0
aF161.0
aF292.0
aF110.0
asg5
S'0.572785'
p1686
sg7
S'laptop'
p1687
sa(dp1688
g3
(lp1689
F105.0
aF317.0
aF210.0
aF304.0
asg5
S'0.436822'
p1690
sg7
S'sofa'
p1691
sa(dp1692
g3
(lp1693
F280.5
aF277.5
aF285.0
aF403.0
asg5
S'0.268733'
p1694
sg7
S'chair'
p1695
sa(dp1696
g3
(lp1697
F112.5
aF122.0
aF203.0
aF186.0
asg5
S'0.263912'
p1698
sg7
S'chair'
p1699
saa(lp1700
(dp1701
g3
(lp1702
F485.5
aF276.0
aF59.0
aF76.0
asg5
S'0.483013'
p1703
sg7
S'pottedplant'
p1704
sa(dp1705
g3
(lp1706
F256.0
aF230.5
aF138.0
aF97.0
asg5
S'0.461092'
p1707
sg7
S'oven'
p1708
sa(dp1709
g3
(lp1710
F127.5
aF351.0
aF165.0
aF188.0
asg5
S'0.423677'
p1711
sg7
S'coffeetable'
p1712
sa(dp1713
g3
(lp1714
F369.5
aF291.0
aF83.0
aF88.0
asg5
S'0.415511'
p1715
sg7
S'pictureframe'
p1716
sa(dp1717
g3
(lp1718
F471.5
aF384.5
aF335.0
aF189.0
asg5
S'0.392470'
p1719
sg7
S'diningtable'
p1720
sa(dp1721
g3
(lp1722
F477.5
aF311.5
aF29.0
aF45.0
asg5
S'0.380704'
p1723
sg7
S'vase'
p1724
saa(lp1725
(dp1726
g3
(lp1727
F384.5
aF98.0
aF129.0
aF146.0
asg5
S'0.842078'
p1728
sg7
S'tvmonitor'
p1729
sa(dp1730
g3
(lp1731
F236.0
aF300.0
aF440.0
aF320.0
asg5
S'0.809609'
p1732
sg7
S'sofa'
p1733
sa(dp1734
g3
(lp1735
F170.5
aF102.0
aF101.0
aF86.0
asg5
S'0.431331'
p1736
sg7
S'pottedplant'
p1737
sa(dp1738
g3
(lp1739
F536.0
aF277.5
aF204.0
aF331.0
asg5
S'0.279715'
p1740
sg7
S'chair'
p1741
saa(lp1742
(dp1743
g3
(lp1744
F268.0
aF241.5
aF262.0
aF237.0
asg5
S'0.758570'
p1745
sg7
S'diningtable'
p1746
sa(dp1747
g3
(lp1748
F350.5
aF245.0
aF113.0
aF222.0
asg5
S'0.752356'
p1749
sg7
S'chair'
p1750
sa(dp1751
g3
(lp1752
F179.0
aF252.5
aF130.0
aF241.0
asg5
S'0.734819'
p1753
sg7
S'chair'
p1754
sa(dp1755
g3
(lp1756
F216.0
aF247.0
aF170.0
aF214.0
asg5
S'0.672911'
p1757
sg7
S'chair'
p1758
sa(dp1759
g3
(lp1760
F485.0
aF127.5
aF120.0
aF141.0
asg5
S'0.553859'
p1761
sg7
S'cabinetry'
p1762
sa(dp1763
g3
(lp1764
F508.5
aF170.0
aF113.0
aF160.0
asg5
S'0.508290'
p1765
sg7
S'chair'
p1766
sa(dp1767
g3
(lp1768
F507.0
aF159.5
aF102.0
aF145.0
asg5
S'0.503265'
p1769
sg7
S'diningtable'
p1770
sa(dp1771
g3
(lp1772
F264.0
aF65.0
aF104.0
aF114.0
asg5
S'0.370938'
p1773
sg7
S'door'
p1774
sa(dp1775
g3
(lp1776
F569.0
aF169.5
aF88.0
aF129.0
asg5
S'0.272149'
p1777
sg7
S'chair'
p1778
saa(lp1779
(dp1780
g3
(lp1781
F126.0
aF88.0
aF140.0
aF108.0
asg5
S'0.778941'
p1782
sg7
S'door'
p1783
sa(dp1784
g3
(lp1785
F256.5
aF316.0
aF145.0
aF278.0
asg5
S'0.733928'
p1786
sg7
S'chair'
p1787
sa(dp1788
g3
(lp1789
F175.0
aF306.0
aF326.0
aF346.0
asg5
S'0.635992'
p1790
sg7
S'diningtable'
p1791
sa(dp1792
g3
(lp1793
F161.0
aF199.0
aF322.0
aF122.0
asg5
S'0.558273'
p1794
sg7
S'diningtable'
p1795
sa(dp1796
g3
(lp1797
F411.0
aF174.0
aF114.0
aF186.0
asg5
S'0.550121'
p1798
sg7
S'chair'
p1799
sa(dp1800
g3
(lp1801
F486.0
aF125.5
aF16.0
aF33.0
asg5
S'0.408759'
p1802
sg7
S'bottle'
p1803
sa(dp1804
g3
(lp1805
F70.5
aF316.0
aF141.0
aF246.0
asg5
S'0.353948'
p1806
sg7
S'chair'
p1807
sa(dp1808
g3
(lp1809
F227.5
aF88.0
aF19.0
aF66.0
asg5
S'0.345662'
p1810
sg7
S'bottle'
p1811
sa(dp1812
g3
(lp1813
F470.5
aF173.0
aF151.0
aF174.0
asg5
S'0.252585'
p1814
sg7
S'chair'
p1815
saa(lp1816
(dp1817
g3
(lp1818
F254.0
aF79.5
aF32.0
aF101.0
asg5
S'0.698600'
p1819
sg7
S'bottle'
p1820
sa(dp1821
g3
(lp1822
F46.5
aF153.5
aF93.0
aF37.0
asg5
S'0.591608'
p1823
sg7
S'sink'
p1824
sa(dp1825
g3
(lp1826
F213.0
aF89.0
aF40.0
aF74.0
asg5
S'0.452174'
p1827
sg7
S'cup'
p1828
sa(dp1829
g3
(lp1830
F129.0
aF119.0
aF48.0
aF48.0
asg5
S'0.406768'
p1831
sg7
S'cup'
p1832
sa(dp1833
g3
(lp1834
F177.5
aF89.5
aF51.0
aF91.0
asg5
S'0.378816'
p1835
sg7
S'cup'
p1836
sa(dp1837
g3
(lp1838
F208.0
aF92.0
aF36.0
aF80.0
asg5
S'0.324319'
p1839
sg7
S'bottle'
p1840
saa(lp1841
(dp1842
g3
(lp1843
F81.0
aF155.0
aF160.0
aF50.0
asg5
S'0.679296'
p1844
sg7
S'sink'
p1845
sa(dp1846
g3
(lp1847
F316.0
aF82.5
aF34.0
aF93.0
asg5
S'0.587681'
p1848
sg7
S'bottle'
p1849
sa(dp1850
g3
(lp1851
F193.5
aF123.5
aF41.0
aF47.0
asg5
S'0.552031'
p1852
sg7
S'cup'
p1853
sa(dp1854
g3
(lp1855
F266.5
aF92.0
aF43.0
aF82.0
asg5
S'0.534974'
p1856
sg7
S'cup'
p1857
sa(dp1858
g3
(lp1859
F284.0
aF94.0
aF32.0
aF78.0
asg5
S'0.533752'
p1860
sg7
S'bottle'
p1861
sa(dp1862
g3
(lp1863
F323.0
aF64.0
aF26.0
aF44.0
asg5
S'0.452056'
p1864
sg7
S'bottle'
p1865
sa(dp1866
g3
(lp1867
F230.5
aF91.0
aF47.0
aF84.0
asg5
S'0.353450'
p1868
sg7
S'cup'
p1869
sa(dp1870
g3
(lp1871
F530.5
aF192.0
aF145.0
aF266.0
asg5
S'0.329424'
p1872
sg7
S'cabinetry'
p1873
sa(dp1874
g3
(lp1875
F237.0
aF100.0
aF38.0
aF72.0
asg5
S'0.302484'
p1876
sg7
S'bottle'
p1877
saa(lp1878
(dp1879
g3
(lp1880
F124.0
aF144.5
aF206.0
aF41.0
asg5
S'0.523856'
p1881
sg7
S'sink'
p1882
sa(dp1883
g3
(lp1884
F165.0
aF91.0
aF36.0
aF76.0
asg5
S'0.427046'
p1885
sg7
S'cup'
p1886
sa(dp1887
g3
(lp1888
F161.0
aF94.5
aF38.0
aF67.0
asg5
S'0.290321'
p1889
sg7
S'cup'
p1890
sa(dp1891
g3
(lp1892
F431.0
aF132.0
aF174.0
aF226.0
asg5
S'0.290274'
p1893
sg7
S'cabinetry'
p1894
saa(lp1895
(dp1896
g3
(lp1897
F46.0
aF123.5
aF68.0
aF71.0
asg5
S'0.400132'
p1898
sg7
S'cup'
p1899
sa(dp1900
g3
(lp1901
F201.5
aF92.5
aF37.0
aF63.0
asg5
S'0.375738'
p1902
sg7
S'cup'
p1903
sa(dp1904
g3
(lp1905
F213.5
aF88.5
aF35.0
aF73.0
asg5
S'0.350947'
p1906
sg7
S'cup'
p1907
sa(dp1908
g3
(lp1909
F164.5
aF141.0
aF209.0
aF36.0
asg5
S'0.340414'
p1910
sg7
S'sink'
p1911
sa(dp1912
g3
(lp1913
F479.5
aF135.5
aF185.0
aF247.0
asg5
S'0.334059'
p1914
sg7
S'cabinetry'
p1915
saa(lp1916
(dp1917
g3
(lp1918
F525.5
aF317.0
aF209.0
aF316.0
asg5
S'0.700177'
p1919
sg7
S'chair'
p1920
sa(dp1921
g3
(lp1922
F514.0
aF315.5
aF164.0
aF245.0
asg5
S'0.553875'
p1923
sg7
S'chair'
p1924
sa(dp1925
g3
(lp1926
F64.5
aF279.5
aF123.0
aF337.0
asg5
S'0.464590'
p1927
sg7
S'refrigerator'
p1928
sa(dp1929
g3
(lp1930
F184.0
aF161.5
aF168.0
aF235.0
asg5
S'0.282210'
p1931
sg7
S'cabinetry'
p1932
saa(lp1933
(dp1934
g3
(lp1935
F570.5
aF382.5
aF137.0
aF193.0
asg5
S'0.615548'
p1936
sg7
S'chair'
p1937
sa(dp1938
g3
(lp1939
F498.5
aF319.5
aF281.0
aF295.0
asg5
S'0.588653'
p1940
sg7
S'diningtable'
p1941
sa(dp1942
g3
(lp1943
F462.5
aF320.0
aF197.0
aF262.0
asg5
S'0.407069'
p1944
sg7
S'chair'
p1945
sa(dp1946
g3
(lp1947
F560.5
aF177.5
aF41.0
aF37.0
asg5
S'0.406530'
p1948
sg7
S'cup'
p1949
sa(dp1950
g3
(lp1951
F420.5
aF316.5
aF125.0
aF225.0
asg5
S'0.343976'
p1952
sg7
S'chair'
p1953
sa(dp1954
g3
(lp1955
F575.0
aF193.5
aF64.0
aF59.0
asg5
S'0.301408'
p1956
sg7
S'cup'
p1957
saa(lp1958
(dp1959
g3
(lp1960
F358.5
aF339.0
aF203.0
aF280.0
asg5
S'0.815706'
p1961
sg7
S'chair'
p1962
sa(dp1963
g3
(lp1964
F463.5
aF321.0
aF351.0
aF266.0
asg5
S'0.737026'
p1965
sg7
S'diningtable'
p1966
sa(dp1967
g3
(lp1968
F468.0
aF233.0
aF342.0
aF132.0
asg5
S'0.703826'
p1969
sg7
S'diningtable'
p1970
sa(dp1971
g3
(lp1972
F291.5
aF239.5
aF49.0
aF115.0
asg5
S'0.463983'
p1973
sg7
S'chair'
p1974
sa(dp1975
g3
(lp1976
F579.5
aF188.5
aF65.0
aF29.0
asg5
S'0.400904'
p1977
sg7
S'bowl'
p1978
sa(dp1979
g3
(lp1980
F578.5
aF128.0
aF121.0
aF156.0
asg5
S'0.380337'
p1981
sg7
S'door'
p1982
sa(dp1983
g3
(lp1984
F558.0
aF390.0
aF162.0
aF176.0
asg5
S'0.380250'
p1985
sg7
S'chair'
p1986
sa(dp1987
g3
(lp1988
F462.0
aF197.0
aF56.0
aF66.0
asg5
S'0.328248'
p1989
sg7
S'cup'
p1990
sa(dp1991
g3
(lp1992
F427.5
aF99.0
aF167.0
aF194.0
asg5
S'0.317886'
p1993
sg7
S'refrigerator'
p1994
sa(dp1995
g3
(lp1996
F435.5
aF202.0
aF29.0
aF46.0
asg5
S'0.289666'
p1997
sg7
S'knife'
p1998
saa(lp1999
(dp2000
g3
(lp2001
F328.5
aF333.5
aF197.0
aF291.0
asg5
S'0.871721'
p2002
sg7
S'chair'
p2003
sa(dp2004
g3
(lp2005
F444.0
aF335.5
aF390.0
aF287.0
asg5
S'0.762118'
p2006
sg7
S'diningtable'
p2007
sa(dp2008
g3
(lp2009
F573.0
aF188.5
aF82.0
aF37.0
asg5
S'0.686128'
p2010
sg7
S'bowl'
p2011
sa(dp2012
g3
(lp2013
F461.0
aF239.5
aF356.0
aF123.0
asg5
S'0.686113'
p2014
sg7
S'diningtable'
p2015
sa(dp2016
g3
(lp2017
F515.0
aF201.5
aF68.0
aF49.0
asg5
S'0.475870'
p2018
sg7
S'bowl'
p2019
sa(dp2020
g3
(lp2021
F528.5
aF394.0
aF217.0
aF164.0
asg5
S'0.380538'
p2022
sg7
S'chair'
p2023
sa(dp2024
g3
(lp2025
F460.5
aF97.0
aF157.0
aF184.0
asg5
S'0.354066'
p2026
sg7
S'refrigerator'
p2027
sa(dp2028
g3
(lp2029
F432.0
aF198.5
aF48.0
aF55.0
asg5
S'0.276966'
p2030
sg7
S'tincan'
p2031
sa(dp2032
g3
(lp2033
F260.5
aF242.5
aF53.0
aF115.0
asg5
S'0.272917'
p2034
sg7
S'chair'
p2035
saa(lp2036
(dp2037
g3
(lp2038
F231.0
aF237.5
aF126.0
aF253.0
asg5
S'0.773860'
p2039
sg7
S'chair'
p2040
sa(dp2041
g3
(lp2042
F402.0
aF245.0
aF108.0
aF216.0
asg5
S'0.766452'
p2043
sg7
S'chair'
p2044
sa(dp2045
g3
(lp2046
F230.0
aF233.5
aF112.0
aF199.0
asg5
S'0.760756'
p2047
sg7
S'chair'
p2048
sa(dp2049
g3
(lp2050
F375.5
aF241.5
aF189.0
aF253.0
asg5
S'0.644847'
p2051
sg7
S'chair'
p2052
sa(dp2053
g3
(lp2054
F613.0
aF170.5
aF50.0
aF147.0
asg5
S'0.604232'
p2055
sg7
S'chair'
p2056
sa(dp2057
g3
(lp2058
F320.0
aF232.0
aF158.0
aF208.0
asg5
S'0.444395'
p2059
sg7
S'diningtable'
p2060
sa(dp2061
g3
(lp2062
F564.5
aF170.0
aF123.0
aF158.0
asg5
S'0.287053'
p2063
sg7
S'diningtable'
p2064
saa.